///////////////////////////////////////////////////////////////////////////////
//
// IAR C/C++ Compiler V9.20.1.2476 for 8051               08/Feb/2017  13:36:23
// Copyright 2004-2015 IAR Systems AB.
// Standalone license - IAR Embedded Workbench for 8051
//
//    Core               =  plain
//    Code model         =  banked
//    Data model         =  large
//    Calling convention =  xdata reentrant
//    Constant location  =  data_rom
//    Dptr setup         =  1,16
//                          
//    Source file        =  
//        D:\School\Jaar_3\WTWS\Z-Stack Mesh 1.0.0\Z-Stack Mesh
//        1.0.0\Projects\zstack\Samples\DemoApp\Source\DemoRouter.c
//    Command line       =  
//        -f "D:\School\Jaar_3\WTWS\Z-Stack Mesh 1.0.0\Z-Stack Mesh
//        1.0.0\Projects\zstack\Samples\DemoApp\CC2530DB\..\..\..\Tools\CC2530DB\f8wRouter.cfg"
//        (-DCPU32MHZ -DROOT=__near_func -DMAC_CFG_APP_PENDING_QUEUE=TRUE
//        -DMAC_CFG_TX_DATA_MAX=5 -DMAC_CFG_TX_MAX=8 -DMAC_CFG_RX_MAX=5
//        -DRTR_NWK) -f "D:\School\Jaar_3\WTWS\Z-Stack Mesh 1.0.0\Z-Stack Mesh
//        1.0.0\Projects\zstack\Samples\DemoApp\CC2530DB\..\..\..\Tools\CC2530DB\f8wConfig.cfg"
//        (-DZIGBEEPRO -DSECURE=0 -DZG_SECURE_DYNAMIC=0 -DREFLECTOR
//        -DDEFAULT_CHANLIST=0x04000000 -DDEFAULT_CHANLIST=0x00100000
//        -DZDAPP_CONFIG_PAN_ID=0x0DAD -DNWK_START_DELAY=100
//        -DEXTENDED_JOINING_RANDOM_MASK=0x007F -DBEACON_REQUEST_DELAY=100
//        -DBEACON_REQ_DELAY_MASK=0x00FF -DLINK_STATUS_JITTER_MASK=0x007F
//        -DROUTE_EXPIRY_TIME=30 -DAPSC_ACK_WAIT_DURATION_POLLED=3000
//        -DNWK_INDIRECT_MSG_TIMEOUT=7 -DMAX_RREQ_ENTRIES=8
//        -DAPSC_MAX_FRAME_RETRIES=3 -DNWK_MAX_DATA_RETRIES=2
//        -DMAX_POLL_FAILURE_RETRIES=2 -DMAX_BCAST=9 -DAPS_MAX_GROUPS=16
//        -DMAX_RTG_ENTRIES=40 -DNWK_MAX_BINDING_ENTRIES=4
//        -DMAX_BINDING_CLUSTER_IDS=4 "-DDEFAULT_KEY={'H', 'O', 'G', 'E', 'S',
//        'C', 'H', 'O', 'O', 'L', 'U', 'T', 'R', 'E', 'C', 'H'}"
//        -DMAC_MAX_FRAME_SIZE=116 -DZDNWKMGR_MIN_TRANSMISSIONS=20
//        "-DCONST=const __code" -DGENERIC=__generic -DRFD_RCVC_ALWAYS_ON=FALSE
//        -DPOLL_RATE=1000 -DQUEUED_POLL_RATE=100 -DRESPONSE_POLL_RATE=100)
//        -DREJOIN_POLL_RATE=440 "D:\School\Jaar_3\WTWS\Z-Stack Mesh
//        1.0.0\Z-Stack Mesh
//        1.0.0\Projects\zstack\Samples\DemoApp\Source\DemoRouter.c" -D
//        HOLD_AUTO_START -D BUILD_ALL_DEVICES -D NV_INIT -D
//        DEVICE_LOGICAL_TYPE=ZG_DEVICETYPE_ROUTER -lC
//        "D:\School\Jaar_3\WTWS\Z-Stack Mesh 1.0.0\Z-Stack Mesh
//        1.0.0\Projects\zstack\Samples\DemoApp\CC2530DB\RouterEB\List\" -lA
//        "D:\School\Jaar_3\WTWS\Z-Stack Mesh 1.0.0\Z-Stack Mesh
//        1.0.0\Projects\zstack\Samples\DemoApp\CC2530DB\RouterEB\List\"
//        --diag_suppress Pe001,Pa010,Pe1665 -o "D:\School\Jaar_3\WTWS\Z-Stack
//        Mesh 1.0.0\Z-Stack Mesh
//        1.0.0\Projects\zstack\Samples\DemoApp\CC2530DB\RouterEB\Obj\" -e
//        --no_cse --no_unroll --no_inline --no_code_motion --no_tbaa --debug
//        --core=plain --dptr=16,1 --data_model=large --code_model=banked
//        --calling_convention=xdata_reentrant --place_constants=data_rom
//        --nr_virtual_regs 16 -I "D:\School\Jaar_3\WTWS\Z-Stack Mesh
//        1.0.0\Z-Stack Mesh 1.0.0\Projects\zstack\Samples\DemoApp\CC2530DB\"
//        -I "D:\School\Jaar_3\WTWS\Z-Stack Mesh 1.0.0\Z-Stack Mesh
//        1.0.0\Projects\zstack\Samples\DemoApp\CC2530DB\..\Source\" -I
//        "D:\School\Jaar_3\WTWS\Z-Stack Mesh 1.0.0\Z-Stack Mesh
//        1.0.0\Projects\zstack\Samples\DemoApp\CC2530DB\..\..\..\ZMain\TI2530DB\"
//        -I "D:\School\Jaar_3\WTWS\Z-Stack Mesh 1.0.0\Z-Stack Mesh
//        1.0.0\Projects\zstack\Samples\DemoApp\CC2530DB\..\..\..\..\..\Components\hal\include\"
//        -I "D:\School\Jaar_3\WTWS\Z-Stack Mesh 1.0.0\Z-Stack Mesh
//        1.0.0\Projects\zstack\Samples\DemoApp\CC2530DB\..\..\..\..\..\Components\hal\target\CC2530EB\"
//        -I "D:\School\Jaar_3\WTWS\Z-Stack Mesh 1.0.0\Z-Stack Mesh
//        1.0.0\Projects\zstack\Samples\DemoApp\CC2530DB\..\..\..\..\..\Components\mac\include\"
//        -I "D:\School\Jaar_3\WTWS\Z-Stack Mesh 1.0.0\Z-Stack Mesh
//        1.0.0\Projects\zstack\Samples\DemoApp\CC2530DB\..\..\..\..\..\Components\mac\high_level\"
//        -I "D:\School\Jaar_3\WTWS\Z-Stack Mesh 1.0.0\Z-Stack Mesh
//        1.0.0\Projects\zstack\Samples\DemoApp\CC2530DB\..\..\..\..\..\Components\mac\low_level\srf04\"
//        -I "D:\School\Jaar_3\WTWS\Z-Stack Mesh 1.0.0\Z-Stack Mesh
//        1.0.0\Projects\zstack\Samples\DemoApp\CC2530DB\..\..\..\..\..\Components\mac\low_level\srf04\single_chip\"
//        -I "D:\School\Jaar_3\WTWS\Z-Stack Mesh 1.0.0\Z-Stack Mesh
//        1.0.0\Projects\zstack\Samples\DemoApp\CC2530DB\..\..\..\..\..\Components\mt\"
//        -I "D:\School\Jaar_3\WTWS\Z-Stack Mesh 1.0.0\Z-Stack Mesh
//        1.0.0\Projects\zstack\Samples\DemoApp\CC2530DB\..\..\..\..\..\Components\osal\include\"
//        -I "D:\School\Jaar_3\WTWS\Z-Stack Mesh 1.0.0\Z-Stack Mesh
//        1.0.0\Projects\zstack\Samples\DemoApp\CC2530DB\..\..\..\..\..\Components\services\saddr\"
//        -I "D:\School\Jaar_3\WTWS\Z-Stack Mesh 1.0.0\Z-Stack Mesh
//        1.0.0\Projects\zstack\Samples\DemoApp\CC2530DB\..\..\..\..\..\Components\services\sdata\"
//        -I "D:\School\Jaar_3\WTWS\Z-Stack Mesh 1.0.0\Z-Stack Mesh
//        1.0.0\Projects\zstack\Samples\DemoApp\CC2530DB\..\..\..\..\..\Components\stack\af\"
//        -I "D:\School\Jaar_3\WTWS\Z-Stack Mesh 1.0.0\Z-Stack Mesh
//        1.0.0\Projects\zstack\Samples\DemoApp\CC2530DB\..\..\..\..\..\Components\stack\nwk\"
//        -I "D:\School\Jaar_3\WTWS\Z-Stack Mesh 1.0.0\Z-Stack Mesh
//        1.0.0\Projects\zstack\Samples\DemoApp\CC2530DB\..\..\..\..\..\Components\stack\sapi\"
//        -I "D:\School\Jaar_3\WTWS\Z-Stack Mesh 1.0.0\Z-Stack Mesh
//        1.0.0\Projects\zstack\Samples\DemoApp\CC2530DB\..\..\..\..\..\Components\stack\sec\"
//        -I "D:\School\Jaar_3\WTWS\Z-Stack Mesh 1.0.0\Z-Stack Mesh
//        1.0.0\Projects\zstack\Samples\DemoApp\CC2530DB\..\..\..\..\..\Components\stack\sys\"
//        -I "D:\School\Jaar_3\WTWS\Z-Stack Mesh 1.0.0\Z-Stack Mesh
//        1.0.0\Projects\zstack\Samples\DemoApp\CC2530DB\..\..\..\..\..\Components\stack\zdo\"
//        -I "D:\School\Jaar_3\WTWS\Z-Stack Mesh 1.0.0\Z-Stack Mesh
//        1.0.0\Projects\zstack\Samples\DemoApp\CC2530DB\..\..\..\..\..\Components\zmac\"
//        -I "D:\School\Jaar_3\WTWS\Z-Stack Mesh 1.0.0\Z-Stack Mesh
//        1.0.0\Projects\zstack\Samples\DemoApp\CC2530DB\..\..\..\..\..\Components\zmac\f8w\"
//        -Ol --require_prototypes
//    List file          =  
//        D:\School\Jaar_3\WTWS\Z-Stack Mesh 1.0.0\Z-Stack Mesh
//        1.0.0\Projects\zstack\Samples\DemoApp\CC2530DB\RouterEB\List\DemoRouter.s51
//
///////////////////////////////////////////////////////////////////////////////

        NAME DemoRouter

        RTMODEL "__SystemLibrary", "CLib"
        RTMODEL "__calling_convention", "xdata_reentrant"
        RTMODEL "__code_model", "banked"
        RTMODEL "__core", "plain"
        RTMODEL "__data_model", "large"
        RTMODEL "__dptr_size", "16"
        RTMODEL "__extended_stack", "disabled"
        RTMODEL "__location_for_constants", "data"
        RTMODEL "__number_of_dptrs", "1"
        RTMODEL "__rt_version", "1"

        RSEG DOVERLAY:DATA:NOROOT(0)
        RSEG IOVERLAY:IDATA:NOROOT(0)
        RSEG ISTACK:IDATA:NOROOT(0)
        RSEG PSTACK:XDATA:NOROOT(0)
        RSEG XSTACK:XDATA:NOROOT(0)

        EXTERN ?V0
        EXTERN ?V1
        EXTERN ?V2
        EXTERN ?V3
        EXTERN ?V4
        EXTERN ?V5
        EXTERN ?V6
        EXTERN ?V7
        EXTERN ?ALLOC_XSTACK8
        EXTERN ?BANKED_ENTER_XDATA
        EXTERN ?BANKED_LEAVE_XDATA
        EXTERN ?BDISPATCH
        EXTERN ?BRET
        EXTERN ?DEALLOC_XSTACK8
        EXTERN ?FLT_MUL
        EXTERN ?FLT_TO_L
        EXTERN ?L_MOV_X
        EXTERN ?PUSH_XSTACK_I_FOUR
        EXTERN ?PUSH_XSTACK_I_ONE
        EXTERN ?PUSH_XSTACK_I_TWO
        EXTERN ?UL_TO_FLT
        EXTERN ?US_SHR
        EXTERN ?XSP
        EXTERN ?XSTACK_DISP0_8
        EXTERN ?XSTACK_DISP100_8
        EXTERN __INIT_XDATA_I
        EXTERN __INIT_XDATA_Z

        FUNCTION `??readTemp::?relay`,0203H
        FUNCTION `??readVoltage::?relay`,0203H
        FUNCTION `??sendReport::?relay`,0203H
        PUBLIC `??uartRxCB::?relay`
        FUNCTION `??uartRxCB::?relay`,0203H
        PUBLIC `??zb_AllowBindConfirm::?relay`
        FUNCTION `??zb_AllowBindConfirm::?relay`,0203H
        PUBLIC `??zb_BindConfirm::?relay`
        FUNCTION `??zb_BindConfirm::?relay`,0203H
        PUBLIC `??zb_FindDeviceConfirm::?relay`
        FUNCTION `??zb_FindDeviceConfirm::?relay`,0203H
        PUBLIC `??zb_HandleKeys::?relay`
        FUNCTION `??zb_HandleKeys::?relay`,0203H
        PUBLIC `??zb_HandleOsalEvent::?relay`
        FUNCTION `??zb_HandleOsalEvent::?relay`,0203H
        PUBLIC `??zb_ReceiveDataIndication::?relay`
        FUNCTION `??zb_ReceiveDataIndication::?relay`,0203H
        PUBLIC `??zb_SendDataConfirm::?relay`
        FUNCTION `??zb_SendDataConfirm::?relay`,0203H
        PUBLIC `??zb_StartConfirm::?relay`
        FUNCTION `??zb_StartConfirm::?relay`,0203H
        PUBWEAK __Constant_42160000
        FUNCTION readTemp,0a1203H
        ARGFRAME XSTACK, 14, STACK
        ARGFRAME IOVERLAY, 0, STATIC
        ARGFRAME DOVERLAY, 0, STATIC
        LOCFRAME XSTACK, 10, STACK
        FUNCTION readVoltage,0a1203H
        ARGFRAME XSTACK, 14, STACK
        ARGFRAME IOVERLAY, 0, STATIC
        ARGFRAME DOVERLAY, 0, STATIC
        LOCFRAME XSTACK, 16, STACK
        FUNCTION sendReport,0a1203H
        ARGFRAME XSTACK, 9, STACK
        ARGFRAME IOVERLAY, 0, STATIC
        ARGFRAME DOVERLAY, 0, STATIC
        LOCFRAME ISTACK, 1, STACK
        LOCFRAME XSTACK, 19, STACK
        PUBLIC uartRxCB
        FUNCTION uartRxCB,0203H
        ARGFRAME XSTACK, 0, STACK
        PUBLIC zb_AllowBindConfirm
        FUNCTION zb_AllowBindConfirm,0203H
        ARGFRAME XSTACK, 0, STACK
        PUBLIC zb_BindConfirm
        FUNCTION zb_BindConfirm,0a1203H
        ARGFRAME XSTACK, 0, STACK
        LOCFRAME XSTACK, 16, STACK
        PUBLIC zb_FindDeviceConfirm
        FUNCTION zb_FindDeviceConfirm,0203H
        ARGFRAME XSTACK, 0, STACK
        PUBLIC zb_HandleKeys
        FUNCTION zb_HandleKeys,0a1203H
        ARGFRAME XSTACK, 0, STACK
        LOCFRAME XSTACK, 16, STACK
        PUBLIC zb_HandleOsalEvent
        FUNCTION zb_HandleOsalEvent,021203H
        ARGFRAME XSTACK, 0, STACK
        LOCFRAME XSTACK, 9, STACK
        PUBLIC zb_OutCmdList
        PUBLIC zb_ReceiveDataIndication
        FUNCTION zb_ReceiveDataIndication,0203H
        ARGFRAME XSTACK, 4, STACK
        PUBLIC zb_SendDataConfirm
        FUNCTION zb_SendDataConfirm,0a1203H
        ARGFRAME XSTACK, 0, STACK
        LOCFRAME XSTACK, 16, STACK
        PUBLIC zb_SimpleDesc
        PUBLIC zb_StartConfirm
        FUNCTION zb_StartConfirm,0a1203H
        ARGFRAME XSTACK, 0, STACK
        LOCFRAME XSTACK, 16, STACK
        
          CFI Names cfiNames0
          CFI StackFrame CFA_SP SP IDATA
          CFI StackFrame CFA_PSP16 PSP16 XDATA
          CFI StackFrame CFA_XSP16 XSP16 XDATA
          CFI StaticOverlayFrame CFA_IOVERLAY IOVERLAY
          CFI StaticOverlayFrame CFA_DOVERLAY DOVERLAY
          CFI Resource `PSW.CY`:1, `B.BR0`:1, `B.BR1`:1, `B.BR2`:1, `B.BR3`:1
          CFI Resource `B.BR4`:1, `B.BR5`:1, `B.BR6`:1, `B.BR7`:1, `VB.BR8`:1
          CFI Resource `VB.BR9`:1, `VB.BR10`:1, `VB.BR11`:1, `VB.BR12`:1
          CFI Resource `VB.BR13`:1, `VB.BR14`:1, `VB.BR15`:1, VB:8, B:8, A:8
          CFI Resource PSW:8, DPL0:8, DPH0:8, R0:8, R1:8, R2:8, R3:8, R4:8, R5:8
          CFI Resource R6:8, R7:8, V0:8, V1:8, V2:8, V3:8, V4:8, V5:8, V6:8, V7:8
          CFI Resource V8:8, V9:8, V10:8, V11:8, V12:8, V13:8, V14:8, V15:8, SP:8
          CFI Resource PSPH:8, PSPL:8, PSP16:16, XSPH:8, XSPL:8, XSP16:16
          CFI VirtualResource ?RET:24
          CFI Resource ?BRET_EXT:8
          CFI VirtualResource ?RET_HIGH:8, ?RET_LOW:8
          CFI ResourceParts PSP16 PSPH, PSPL
          CFI ResourceParts XSP16 XSPH, XSPL
          CFI ResourceParts ?RET ?BRET_EXT, ?RET_HIGH, ?RET_LOW
          CFI EndNames cfiNames0
        
          CFI Common cfiCommon0 Using cfiNames0
          CFI CodeAlign 1
          CFI DataAlign -1
          CFI ReturnAddress ?RET CODE
          CFI CFA_DOVERLAY Used
          CFI CFA_IOVERLAY Used
          CFI CFA_SP SP+-3
          CFI CFA_PSP16 PSP16+0
          CFI CFA_XSP16 XSP16+0
          CFI `PSW.CY` SameValue
          CFI `B.BR0` SameValue
          CFI `B.BR1` SameValue
          CFI `B.BR2` SameValue
          CFI `B.BR3` SameValue
          CFI `B.BR4` SameValue
          CFI `B.BR5` SameValue
          CFI `B.BR6` SameValue
          CFI `B.BR7` SameValue
          CFI `VB.BR8` SameValue
          CFI `VB.BR9` SameValue
          CFI `VB.BR10` SameValue
          CFI `VB.BR11` SameValue
          CFI `VB.BR12` SameValue
          CFI `VB.BR13` SameValue
          CFI `VB.BR14` SameValue
          CFI `VB.BR15` SameValue
          CFI VB SameValue
          CFI B Undefined
          CFI A Undefined
          CFI PSW SameValue
          CFI DPL0 SameValue
          CFI DPH0 SameValue
          CFI R0 Undefined
          CFI R1 Undefined
          CFI R2 Undefined
          CFI R3 Undefined
          CFI R4 Undefined
          CFI R5 Undefined
          CFI R6 SameValue
          CFI R7 SameValue
          CFI V0 SameValue
          CFI V1 SameValue
          CFI V2 SameValue
          CFI V3 SameValue
          CFI V4 SameValue
          CFI V5 SameValue
          CFI V6 SameValue
          CFI V7 SameValue
          CFI V8 SameValue
          CFI V9 SameValue
          CFI V10 SameValue
          CFI V11 SameValue
          CFI V12 SameValue
          CFI V13 SameValue
          CFI V14 SameValue
          CFI V15 SameValue
          CFI PSPH Undefined
          CFI PSPL Undefined
          CFI XSPH Undefined
          CFI XSPL Undefined
          CFI ?RET Concat
          CFI ?BRET_EXT Frame(CFA_SP, 3)
          CFI ?RET_HIGH Frame(CFA_SP, 2)
          CFI ?RET_LOW Frame(CFA_SP, 1)
          CFI EndCommon cfiCommon0
        
HalLedBlink         SYMBOL "HalLedBlink"
`??HalLedBlink::?relay` SYMBOL "?relay", HalLedBlink
HalLedSet           SYMBOL "HalLedSet"
`??HalLedSet::?relay` SYMBOL "?relay", HalLedSet
HalReadTemp         SYMBOL "HalReadTemp"
`??HalReadTemp::?relay` SYMBOL "?relay", HalReadTemp
osal_set_event      SYMBOL "osal_set_event"
`??osal_set_event::?relay` SYMBOL "?relay", osal_set_event
osal_start_reload_timer SYMBOL "osal_start_reload_timer"
`??osal_start_reload_timer::?relay` SYMBOL "?relay", osal_start_reload_timer
osal_start_timerEx  SYMBOL "osal_start_timerEx"
`??osal_start_timerEx::?relay` SYMBOL "?relay", osal_start_timerEx
osal_stop_timerEx   SYMBOL "osal_stop_timerEx"
`??osal_stop_timerEx::?relay` SYMBOL "?relay", osal_stop_timerEx
zb_AllowBind        SYMBOL "zb_AllowBind"
`??zb_AllowBind::?relay` SYMBOL "?relay", zb_AllowBind
zb_BindDevice       SYMBOL "zb_BindDevice"
`??zb_BindDevice::?relay` SYMBOL "?relay", zb_BindDevice
zb_GetDeviceInfo    SYMBOL "zb_GetDeviceInfo"
`??zb_GetDeviceInfo::?relay` SYMBOL "?relay", zb_GetDeviceInfo
zb_SendDataRequest  SYMBOL "zb_SendDataRequest"
`??zb_SendDataRequest::?relay` SYMBOL "?relay", zb_SendDataRequest
zb_StartRequest     SYMBOL "zb_StartRequest"
`??zb_StartRequest::?relay` SYMBOL "?relay", zb_StartRequest
zb_SystemReset      SYMBOL "zb_SystemReset"
`??zb_SystemReset::?relay` SYMBOL "?relay", zb_SystemReset
uartRxCB            SYMBOL "uartRxCB"
`??uartRxCB::?relay` SYMBOL "?relay", uartRxCB
zb_AllowBindConfirm SYMBOL "zb_AllowBindConfirm"
`??zb_AllowBindConfirm::?relay` SYMBOL "?relay", zb_AllowBindConfirm
zb_BindConfirm      SYMBOL "zb_BindConfirm"
`??zb_BindConfirm::?relay` SYMBOL "?relay", zb_BindConfirm
zb_FindDeviceConfirm SYMBOL "zb_FindDeviceConfirm"
`??zb_FindDeviceConfirm::?relay` SYMBOL "?relay", zb_FindDeviceConfirm
zb_HandleKeys       SYMBOL "zb_HandleKeys"
`??zb_HandleKeys::?relay` SYMBOL "?relay", zb_HandleKeys
zb_HandleOsalEvent  SYMBOL "zb_HandleOsalEvent"
`??zb_HandleOsalEvent::?relay` SYMBOL "?relay", zb_HandleOsalEvent
zb_ReceiveDataIndication SYMBOL "zb_ReceiveDataIndication"
`??zb_ReceiveDataIndication::?relay` SYMBOL "?relay", zb_ReceiveDataIndication
zb_SendDataConfirm  SYMBOL "zb_SendDataConfirm"
`??zb_SendDataConfirm::?relay` SYMBOL "?relay", zb_SendDataConfirm
zb_StartConfirm     SYMBOL "zb_StartConfirm"
`??zb_StartConfirm::?relay` SYMBOL "?relay", zb_StartConfirm

        EXTERN `??HalLedBlink::?relay`
        FUNCTION `??HalLedBlink::?relay`,00H
        EXTERN `??HalLedSet::?relay`
        FUNCTION `??HalLedSet::?relay`,00H
        EXTERN `??HalReadTemp::?relay`
        FUNCTION `??HalReadTemp::?relay`,00H
        EXTERN `??osal_set_event::?relay`
        FUNCTION `??osal_set_event::?relay`,00H
        EXTERN `??osal_start_reload_timer::?relay`
        FUNCTION `??osal_start_reload_timer::?relay`,00H
        EXTERN `??osal_start_timerEx::?relay`
        FUNCTION `??osal_start_timerEx::?relay`,00H
        EXTERN `??osal_stop_timerEx::?relay`
        FUNCTION `??osal_stop_timerEx::?relay`,00H
        EXTERN `??zb_AllowBind::?relay`
        FUNCTION `??zb_AllowBind::?relay`,00H
        EXTERN `??zb_BindDevice::?relay`
        FUNCTION `??zb_BindDevice::?relay`,00H
        EXTERN `??zb_GetDeviceInfo::?relay`
        FUNCTION `??zb_GetDeviceInfo::?relay`,00H
        EXTERN `??zb_SendDataRequest::?relay`
        FUNCTION `??zb_SendDataRequest::?relay`,00H
        EXTERN `??zb_StartRequest::?relay`
        FUNCTION `??zb_StartRequest::?relay`,00H
        EXTERN `??zb_SystemReset::?relay`
        FUNCTION `??zb_SystemReset::?relay`,00H
        EXTERN HalLedBlink
        FUNCTION HalLedBlink,0202H
        ARGFRAME ISTACK, 0, STACK
        ARGFRAME PSTACK, 0, STACK
        ARGFRAME XSTACK, 9, STACK
        ARGFRAME IOVERLAY, 0, STATIC
        ARGFRAME DOVERLAY, 0, STATIC
        EXTERN HalLedSet
        FUNCTION HalLedSet,0202H
        ARGFRAME ISTACK, 0, STACK
        ARGFRAME PSTACK, 0, STACK
        ARGFRAME XSTACK, 12, STACK
        ARGFRAME IOVERLAY, 0, STATIC
        ARGFRAME DOVERLAY, 0, STATIC
        EXTERN HalReadTemp
        FUNCTION HalReadTemp,0202H
        ARGFRAME ISTACK, 0, STACK
        ARGFRAME PSTACK, 0, STACK
        ARGFRAME XSTACK, 16, STACK
        ARGFRAME IOVERLAY, 0, STATIC
        ARGFRAME DOVERLAY, 0, STATIC
        EXTERN osal_set_event
        FUNCTION osal_set_event,0202H
        ARGFRAME ISTACK, 0, STACK
        ARGFRAME PSTACK, 0, STACK
        ARGFRAME XSTACK, 12, STACK
        ARGFRAME IOVERLAY, 0, STATIC
        ARGFRAME DOVERLAY, 0, STATIC
        EXTERN osal_start_reload_timer
        FUNCTION osal_start_reload_timer,0202H
        ARGFRAME ISTACK, 0, STACK
        ARGFRAME PSTACK, 0, STACK
        ARGFRAME XSTACK, 16, STACK
        ARGFRAME IOVERLAY, 0, STATIC
        ARGFRAME DOVERLAY, 0, STATIC
        EXTERN osal_start_timerEx
        FUNCTION osal_start_timerEx,0202H
        ARGFRAME ISTACK, 0, STACK
        ARGFRAME PSTACK, 0, STACK
        ARGFRAME XSTACK, 16, STACK
        ARGFRAME IOVERLAY, 0, STATIC
        ARGFRAME DOVERLAY, 0, STATIC
        EXTERN osal_stop_timerEx
        FUNCTION osal_stop_timerEx,0202H
        ARGFRAME ISTACK, 0, STACK
        ARGFRAME PSTACK, 0, STACK
        ARGFRAME XSTACK, 12, STACK
        ARGFRAME IOVERLAY, 0, STATIC
        ARGFRAME DOVERLAY, 0, STATIC
        EXTERN sapi_TaskID
        EXTERN zb_AllowBind
        FUNCTION zb_AllowBind,0202H
        ARGFRAME ISTACK, 0, STACK
        ARGFRAME PSTACK, 0, STACK
        ARGFRAME XSTACK, 12, STACK
        ARGFRAME IOVERLAY, 0, STATIC
        ARGFRAME DOVERLAY, 0, STATIC
        EXTERN zb_BindDevice
        FUNCTION zb_BindDevice,0202H
        ARGFRAME ISTACK, 0, STACK
        ARGFRAME PSTACK, 0, STACK
        ARGFRAME XSTACK, 12, STACK
        ARGFRAME IOVERLAY, 0, STATIC
        ARGFRAME DOVERLAY, 0, STATIC
        EXTERN zb_GetDeviceInfo
        FUNCTION zb_GetDeviceInfo,0202H
        ARGFRAME ISTACK, 0, STACK
        ARGFRAME PSTACK, 0, STACK
        ARGFRAME XSTACK, 12, STACK
        ARGFRAME IOVERLAY, 0, STATIC
        ARGFRAME DOVERLAY, 0, STATIC
        EXTERN zb_SendDataRequest
        FUNCTION zb_SendDataRequest,0202H
        ARGFRAME ISTACK, 0, STACK
        ARGFRAME PSTACK, 0, STACK
        ARGFRAME XSTACK, 19, STACK
        ARGFRAME IOVERLAY, 0, STATIC
        ARGFRAME DOVERLAY, 0, STATIC
        EXTERN zb_StartRequest
        FUNCTION zb_StartRequest,0202H
        ARGFRAME ISTACK, 0, STACK
        ARGFRAME PSTACK, 0, STACK
        ARGFRAME XSTACK, 9, STACK
        ARGFRAME IOVERLAY, 0, STATIC
        ARGFRAME DOVERLAY, 0, STATIC
        EXTERN zb_SystemReset
        FUNCTION zb_SystemReset,0202H
        ARGFRAME ISTACK, 0, STACK
        ARGFRAME PSTACK, 0, STACK
        ARGFRAME XSTACK, 12, STACK
        ARGFRAME IOVERLAY, 0, STATIC
        ARGFRAME DOVERLAY, 0, STATIC

// D:\School\Jaar_3\WTWS\Z-Stack Mesh 1.0.0\Z-Stack Mesh 1.0.0\Projects\zstack\Samples\DemoApp\Source\DemoRouter.c
//    1 /**************************************************************************************************
//    2   Filename:       DemoRouter.c
//    3 
//    4   Description:    Router application for the sensor demo utilizing the Simple API.
//    5 
//    6                   The router application binds to a gateway and will periodically
//    7                   read temperature and supply voltage from the ADC and send report
//    8                   towards the gateway node.
//    9 
//   10 
//   11   Copyright 2009 Texas Instruments Incorporated. All rights reserved.
//   12 
//   13   IMPORTANT: Your use of this Software is limited to those specific rights
//   14   granted under the terms of a software license agreement between the user
//   15   who downloaded the software, his/her employer (which must be your employer)
//   16   and Texas Instruments Incorporated (the "License").  You may not use this
//   17   Software unless you agree to abide by the terms of the License. The License
//   18   limits your use, and you acknowledge, that the Software may not be modified,
//   19   copied or distributed unless embedded on a Texas Instruments microcontroller
//   20   or used solely and exclusively in conjunction with a Texas Instruments radio
//   21   frequency transceiver, which is integrated into your product.  Other than for
//   22   the foregoing purpose, you may not use, reproduce, copy, prepare derivative
//   23   works of, modify, distribute, perform, display or sell this Software and/or
//   24   its documentation for any purpose.
//   25 
//   26   YOU FURTHER ACKNOWLEDGE AND AGREE THAT THE SOFTWARE AND DOCUMENTATION ARE
//   27   PROVIDED “AS IS” WITHOUT WARRANTY OF ANY KIND, EITHER EXPRESS OR IMPLIED,
//   28   INCLUDING WITHOUT LIMITATION, ANY WARRANTY OF MERCHANTABILITY, TITLE,
//   29   NON-INFRINGEMENT AND FITNESS FOR A PARTICULAR PURPOSE. IN NO EVENT SHALL
//   30   TEXAS INSTRUMENTS OR ITS LICENSORS BE LIABLE OR OBLIGATED UNDER CONTRACT,
//   31   NEGLIGENCE, STRICT LIABILITY, CONTRIBUTION, BREACH OF WARRANTY, OR OTHER
//   32   LEGAL EQUITABLE THEORY ANY DIRECT OR INDIRECT DAMAGES OR EXPENSES
//   33   INCLUDING BUT NOT LIMITED TO ANY INCIDENTAL, SPECIAL, INDIRECT, PUNITIVE
//   34   OR CONSEQUENTIAL DAMAGES, LOST PROFITS OR LOST DATA, COST OF PROCUREMENT
//   35   OF SUBSTITUTE GOODS, TECHNOLOGY, SERVICES, OR ANY CLAIMS BY THIRD PARTIES
//   36   (INCLUDING BUT NOT LIMITED TO ANY DEFENSE THEREOF), OR OTHER SIMILAR COSTS.
//   37 
//   38   Should you have any questions regarding your right to use this Software,
//   39   contact Texas Instruments Incorporated at www.TI.com.
//   40 **************************************************************************************************/
//   41 
//   42 /******************************************************************************
//   43  * INCLUDES
//   44  */
//   45 #include "sapi.h"
//   46 #include "hal_key.h"
//   47 #include "hal_led.h"
//   48 #include "hal_adc.h"
//   49 #include "hal_uart.h"
//   50 #include "DemoApp.h"
//   51 
//   52 /******************************************************************************
//   53  * CONSTANTS
//   54  */
//   55 #define REPORT_FAILURE_LIMIT                3
//   56 #define ACK_REQ_INTERVAL                    5    // each 5th packet is sent with ACK request
//   57 
//   58 // Application osal event identifiers
//   59 // Bit mask of events ( from 0x0000 to 0x00FF )
//   60 #define MY_START_EVT                        0x0001
//   61 #define MY_REPORT_EVT                       0x0002
//   62 #define MY_FIND_COLLECTOR_EVT               0x0004
//   63 
//   64 // ADC definitions for CC2430/CC2530 from the hal_adc.c file
//   65 #if defined (HAL_MCU_CC2530)
//   66 #define HAL_ADC_REF_125V    0x00    /* Internal 1.25V Reference */
//   67 #define HAL_ADC_DEC_064     0x00    /* Decimate by 64 : 8-bit resolution */
//   68 #define HAL_ADC_DEC_128     0x10    /* Decimate by 128 : 10-bit resolution */
//   69 #define HAL_ADC_DEC_512     0x30    /* Decimate by 512 : 14-bit resolution */
//   70 #define HAL_ADC_CHN_VDD3    0x0f    /* Input channel: VDD/3 */
//   71 #define HAL_ADC_CHN_TEMP    0x0e    /* Temperature sensor */
//   72 #endif // HAL_MCU_CC2530
//   73 
//   74 /******************************************************************************
//   75  * LOCAL VARIABLES
//   76  */

        RSEG XDATA_Z:XDATA:NOROOT(0)
        DATA8
//   77 static uint8 appState =           APP_INIT;
appState:
        DS 1
        REQUIRE __INIT_XDATA_Z

        RSEG XDATA_Z:XDATA:NOROOT(0)
        DATA8
//   78 static uint8 reportState =        FALSE;
reportState:
        DS 1
        REQUIRE __INIT_XDATA_Z
//   79 

        RSEG XDATA_Z:XDATA:NOROOT(0)
        DATA8
//   80 static uint8 reportFailureNr =    0;
reportFailureNr:
        DS 1
        REQUIRE __INIT_XDATA_Z

        RSEG XDATA_Z:XDATA:NOROOT(0)
        DATA8
//   81 static uint8 bindRetries =        0;
bindRetries:
        DS 1
        REQUIRE __INIT_XDATA_Z
//   82 

        RSEG XDATA_I:XDATA:NOROOT(0)
//   83 static uint16 myReportPeriod =    5000;         // milliseconds
myReportPeriod:
        DATA16
        DS 2
        REQUIRE `?<Initializer for myReportPeriod>`
        REQUIRE __INIT_XDATA_I

        RSEG XDATA_I:XDATA:NOROOT(0)
//   84 static uint16 myBindRetryDelay =  2000;         // milliseconds
myBindRetryDelay:
        DATA16
        DS 2
        REQUIRE `?<Initializer for myBindRetryDelay>`
        REQUIRE __INIT_XDATA_I

        RSEG XDATA_I:XDATA:NOROOT(0)
//   85 static uint8 myStartRetryDelay =  10;           // milliseconds
myStartRetryDelay:
        DATA8
        DS 1
        REQUIRE `?<Initializer for myStartRetryDelay>`
        REQUIRE __INIT_XDATA_I
//   86 

        RSEG XDATA_Z:XDATA:NOROOT(0)
        DATA16
//   87 static uint16 parentShortAddr;
parentShortAddr:
        DS 2
        REQUIRE __INIT_XDATA_Z
//   88 
//   89 /******************************************************************************
//   90  * GLOBAL VARIABLES
//   91  */
//   92 // Inputs and Outputs for Sensor device
//   93 #define NUM_OUT_CMD_SENSOR        1
//   94 #define NUM_IN_CMD_SENSOR         0
//   95 
//   96 // List of output and input commands for Sensor device

        RSEG XDATA_ROM_C:CONST:REORDER:NOROOT(0)
        DATA16
//   97 const cId_t zb_OutCmdList[NUM_OUT_CMD_SENSOR] =
zb_OutCmdList:
        DW 2
//   98 {
//   99   SENSOR_REPORT_CMD_ID
//  100 };
//  101 
//  102 // Define SimpleDescriptor for Sensor device

        RSEG XDATA_ROM_C:CONST:REORDER:NOROOT(0)
        DATA8
//  103 const SimpleDescriptionFormat_t zb_SimpleDesc =
zb_SimpleDesc:
        DB 2
        DATA16
        DW 3872
        DW 1
        DATA8
        DB 1
        DB 0
        DATA16
        DW 0H
        DATA8
        DB 1
        DATA16
        DW zb_OutCmdList
//  104 {
//  105   MY_ENDPOINT_ID,             //  Endpoint
//  106   MY_PROFILE_ID,              //  Profile ID
//  107   DEV_ID_SENSOR,              //  Device ID
//  108   DEVICE_VERSION_SENSOR,      //  Device Version
//  109   0,                          //  Reserved
//  110   NUM_IN_CMD_SENSOR,          //  Number of Input Commands
//  111   (cId_t *) NULL,             //  Input Command List
//  112   NUM_OUT_CMD_SENSOR,         //  Number of Output Commands
//  113   (cId_t *) zb_OutCmdList     //  Output Command List
//  114 };
//  115 
//  116 /******************************************************************************
//  117  * LOCAL FUNCTIONS
//  118  */
//  119 void uartRxCB( uint8 port, uint8 event );
//  120 static void sendReport(void);
//  121 static int8 readTemp(void);
//  122 static uint8 readVoltage(void);
//  123 
//  124 /******************************************************************************
//  125  * GLOBAL FUNCTIONS
//  126  */
//  127 
//  128 /*****************************************************************************
//  129  * @fn          zb_HandleOsalEvent
//  130  *
//  131  * @brief       The zb_HandleOsalEvent function is called by the operating
//  132  *              system when a task event is set
//  133  *
//  134  * @param       event - Bitmask containing the events that have been set
//  135  *
//  136  * @return      none
//  137  */

        RSEG BANKED_CODE:CODE:NOROOT(0)
//  138 void zb_HandleOsalEvent( uint16 event )
zb_HandleOsalEvent:
          CFI Block cfiBlock0 Using cfiCommon0
          CFI Function zb_HandleOsalEvent
        CODE
//  139 {
        FUNCALL zb_HandleOsalEvent, HalLedBlink
        LOCFRAME ISTACK, 0, STACK
        LOCFRAME PSTACK, 0, STACK
        LOCFRAME XSTACK, 9, STACK
        LOCFRAME IOVERLAY, 0, STATIC
        LOCFRAME DOVERLAY, 0, STATIC
        ARGFRAME ISTACK, 0, STACK
        ARGFRAME PSTACK, 0, STACK
        ARGFRAME XSTACK, 9, STACK
        ARGFRAME IOVERLAY, 0, STATIC
        ARGFRAME DOVERLAY, 0, STATIC
        FUNCALL zb_HandleOsalEvent, zb_StartRequest
        LOCFRAME ISTACK, 0, STACK
        LOCFRAME PSTACK, 0, STACK
        LOCFRAME XSTACK, 9, STACK
        LOCFRAME IOVERLAY, 0, STATIC
        LOCFRAME DOVERLAY, 0, STATIC
        ARGFRAME ISTACK, 0, STACK
        ARGFRAME PSTACK, 0, STACK
        ARGFRAME XSTACK, 9, STACK
        ARGFRAME IOVERLAY, 0, STATIC
        ARGFRAME DOVERLAY, 0, STATIC
        FUNCALL zb_HandleOsalEvent, zb_StartRequest
        LOCFRAME ISTACK, 0, STACK
        LOCFRAME PSTACK, 0, STACK
        LOCFRAME XSTACK, 9, STACK
        LOCFRAME IOVERLAY, 0, STATIC
        LOCFRAME DOVERLAY, 0, STATIC
        ARGFRAME ISTACK, 0, STACK
        ARGFRAME PSTACK, 0, STACK
        ARGFRAME XSTACK, 9, STACK
        ARGFRAME IOVERLAY, 0, STATIC
        ARGFRAME DOVERLAY, 0, STATIC
        FUNCALL zb_HandleOsalEvent, sendReport
        LOCFRAME ISTACK, 0, STACK
        LOCFRAME PSTACK, 0, STACK
        LOCFRAME XSTACK, 9, STACK
        LOCFRAME IOVERLAY, 0, STATIC
        LOCFRAME DOVERLAY, 0, STATIC
        ARGFRAME ISTACK, 0, STACK
        ARGFRAME PSTACK, 0, STACK
        ARGFRAME XSTACK, 9, STACK
        ARGFRAME IOVERLAY, 0, STATIC
        ARGFRAME DOVERLAY, 0, STATIC
        FUNCALL zb_HandleOsalEvent, HalLedBlink
        LOCFRAME ISTACK, 0, STACK
        LOCFRAME PSTACK, 0, STACK
        LOCFRAME XSTACK, 9, STACK
        LOCFRAME IOVERLAY, 0, STATIC
        LOCFRAME DOVERLAY, 0, STATIC
        ARGFRAME ISTACK, 0, STACK
        ARGFRAME PSTACK, 0, STACK
        ARGFRAME XSTACK, 9, STACK
        ARGFRAME IOVERLAY, 0, STATIC
        ARGFRAME DOVERLAY, 0, STATIC
        FUNCALL zb_HandleOsalEvent, zb_BindDevice
        LOCFRAME ISTACK, 0, STACK
        LOCFRAME PSTACK, 0, STACK
        LOCFRAME XSTACK, 9, STACK
        LOCFRAME IOVERLAY, 0, STATIC
        LOCFRAME DOVERLAY, 0, STATIC
        ARGFRAME ISTACK, 0, STACK
        ARGFRAME PSTACK, 0, STACK
        ARGFRAME XSTACK, 9, STACK
        ARGFRAME IOVERLAY, 0, STATIC
        ARGFRAME DOVERLAY, 0, STATIC
        MOV     A,#-0x9
        LCALL   ?BANKED_ENTER_XDATA
          CFI DPH0 load(1, XDATA, add(CFA_XSP16, literal(-1)))
          CFI DPL0 load(1, XDATA, add(CFA_XSP16, literal(-2)))
          CFI ?BRET_EXT load(1, XDATA, add(CFA_XSP16, literal(-3)))
          CFI ?RET_HIGH load(1, XDATA, add(CFA_XSP16, literal(-4)))
          CFI ?RET_LOW load(1, XDATA, add(CFA_XSP16, literal(-5)))
          CFI R7 load(1, XDATA, add(CFA_XSP16, literal(-6)))
          CFI V0 load(1, XDATA, add(CFA_XSP16, literal(-7)))
          CFI VB load(1, XDATA, add(CFA_XSP16, literal(-8)))
          CFI R6 load(1, XDATA, add(CFA_XSP16, literal(-9)))
          CFI CFA_SP SP+0
          CFI CFA_XSP16 add(XSP16, 9)
        ; Saved register size: 9
        ; Auto size: 0
        MOV     A,R2
        MOV     R6,A
        MOV     A,R3
        MOV     R7,A
//  140   if( event & SYS_EVENT_MSG )
//  141   {
//  142   }
//  143 
//  144   if( event & ZB_ENTRY_EVENT )
        MOV     A,R6
        ANL     A,#0x0
        MOV     R0,A
        MOV     A,R7
        ANL     A,#0x10
        MOV     R1,A
        MOV     A,R0
        ORL     A,R1
        JZ      ??zb_HandleOsalEvent_0
//  145   {
//  146     // blind LED 1 to indicate joining a network
//  147     HalLedBlink ( HAL_LED_1, 0, 50, 500 );
        ; Setup parameters for call to function HalLedBlink
        MOV     R4,#-0xc
        MOV     R5,#0x1
        MOV     R3,#0x32
        MOV     R2,#0x0
        MOV     R1,#0x1
        LCALL   `??HalLedBlink::?relay`; Banked call to: HalLedBlink
//  148 
//  149     // Start the device
//  150     appState = APP_START;
        MOV     DPTR,#appState
        MOV     A,#0x1
        MOVX    @DPTR,A
//  151     zb_StartRequest();
        ; Setup parameters for call to function zb_StartRequest
        LCALL   `??zb_StartRequest::?relay`; Banked call to: zb_StartRequest
//  152   }
//  153 
//  154   if ( event & MY_START_EVT )
??zb_HandleOsalEvent_0:
        MOV     A,R6
        MOV     C,0xE0 /* A   */.0
        JNC     ??zb_HandleOsalEvent_1
//  155   {
//  156     zb_StartRequest();
        ; Setup parameters for call to function zb_StartRequest
        LCALL   `??zb_StartRequest::?relay`; Banked call to: zb_StartRequest
//  157   }
//  158 
//  159   if ( event & MY_REPORT_EVT )
??zb_HandleOsalEvent_1:
        MOV     A,R6
        ANL     A,#0x2
        JZ      ??zb_HandleOsalEvent_2
//  160   {
//  161     if ( appState == APP_RUN )
        MOV     DPTR,#appState
        MOVX    A,@DPTR
        XRL     A,#0x4
        JNZ     ??zb_HandleOsalEvent_2
//  162     {
//  163       sendReport();
        ; Setup parameters for call to function sendReport
        LCALL   `??sendReport::?relay`; Banked call to: sendReport
//  164     }
//  165   }
//  166 
//  167   if ( event & MY_FIND_COLLECTOR_EVT )
??zb_HandleOsalEvent_2:
        MOV     A,R6
        ANL     A,#0x4
        JZ      ??zb_HandleOsalEvent_3
//  168   {
//  169     // blind LED 2 to indicate discovery and binding
//  170     HalLedBlink ( HAL_LED_2, 0, 50, 500 );
        ; Setup parameters for call to function HalLedBlink
        MOV     R4,#-0xc
        MOV     R5,#0x1
        MOV     R3,#0x32
        MOV     R2,#0x0
        MOV     R1,#0x2
        LCALL   `??HalLedBlink::?relay`; Banked call to: HalLedBlink
//  171 
//  172     // Find and bind to a collector device
//  173     appState = APP_BIND;
        MOV     DPTR,#appState
        MOV     A,#0x2
        MOVX    @DPTR,A
//  174     zb_BindDevice( TRUE, SENSOR_REPORT_CMD_ID, (uint8 *)NULL );
        ; Setup parameters for call to function zb_BindDevice
        MOV     R4,#0x0
        MOV     R5,#0x0
        MOV     R2,#0x2
        MOV     R3,#0x0
        MOV     R1,#0x1
        LCALL   `??zb_BindDevice::?relay`; Banked call to: zb_BindDevice
//  175   }
//  176 }
??zb_HandleOsalEvent_3:
        MOV     R7,#0x1
        LJMP    ?BANKED_LEAVE_XDATA
          CFI R6 SameValue
          CFI VB SameValue
          CFI V0 SameValue
          CFI R7 SameValue
          CFI ?RET_LOW Frame(CFA_SP, 1)
          CFI ?RET_HIGH Frame(CFA_SP, 2)
          CFI ?BRET_EXT Frame(CFA_SP, 3)
          CFI DPL0 SameValue
          CFI DPH0 SameValue
          CFI CFA_SP SP+-3
          CFI CFA_XSP16 XSP16+0
          CFI EndBlock cfiBlock0
//  177 
//  178 /******************************************************************************
//  179  * @fn      zb_HandleKeys
//  180  *
//  181  * @brief   Handles all key events for this device.
//  182  *
//  183  * @param   shift - true if in shift/alt.
//  184  * @param   keys - bit field for key events. Valid entries:
//  185  *                 EVAL_SW4
//  186  *                 EVAL_SW3
//  187  *                 EVAL_SW2
//  188  *                 EVAL_SW1
//  189  *
//  190  * @return  none
//  191  */

        RSEG BANKED_CODE:CODE:NOROOT(0)
//  192 void zb_HandleKeys( uint8 shift, uint8 keys )
zb_HandleKeys:
          CFI Block cfiBlock1 Using cfiCommon0
          CFI Function zb_HandleKeys
        CODE
//  193 {
        FUNCALL zb_HandleKeys, osal_start_reload_timer
        LOCFRAME ISTACK, 0, STACK
        LOCFRAME PSTACK, 0, STACK
        LOCFRAME XSTACK, 16, STACK
        LOCFRAME IOVERLAY, 0, STATIC
        LOCFRAME DOVERLAY, 0, STATIC
        ARGFRAME ISTACK, 0, STACK
        ARGFRAME PSTACK, 0, STACK
        ARGFRAME XSTACK, 16, STACK
        ARGFRAME IOVERLAY, 0, STATIC
        ARGFRAME DOVERLAY, 0, STATIC
        FUNCALL zb_HandleKeys, HalLedSet
        LOCFRAME ISTACK, 0, STACK
        LOCFRAME PSTACK, 0, STACK
        LOCFRAME XSTACK, 12, STACK
        LOCFRAME IOVERLAY, 0, STATIC
        LOCFRAME DOVERLAY, 0, STATIC
        ARGFRAME ISTACK, 0, STACK
        ARGFRAME PSTACK, 0, STACK
        ARGFRAME XSTACK, 12, STACK
        ARGFRAME IOVERLAY, 0, STATIC
        ARGFRAME DOVERLAY, 0, STATIC
        REQUIRE ?V0
        REQUIRE ?V1
        REQUIRE ?V2
        REQUIRE ?V3
        MOV     A,#-0xc
        LCALL   ?BANKED_ENTER_XDATA
          CFI DPH0 load(1, XDATA, add(CFA_XSP16, literal(-1)))
          CFI DPL0 load(1, XDATA, add(CFA_XSP16, literal(-2)))
          CFI ?BRET_EXT load(1, XDATA, add(CFA_XSP16, literal(-3)))
          CFI ?RET_HIGH load(1, XDATA, add(CFA_XSP16, literal(-4)))
          CFI ?RET_LOW load(1, XDATA, add(CFA_XSP16, literal(-5)))
          CFI R7 load(1, XDATA, add(CFA_XSP16, literal(-6)))
          CFI V3 load(1, XDATA, add(CFA_XSP16, literal(-7)))
          CFI V2 load(1, XDATA, add(CFA_XSP16, literal(-8)))
          CFI V1 load(1, XDATA, add(CFA_XSP16, literal(-9)))
          CFI V0 load(1, XDATA, add(CFA_XSP16, literal(-10)))
          CFI VB load(1, XDATA, add(CFA_XSP16, literal(-11)))
          CFI R6 load(1, XDATA, add(CFA_XSP16, literal(-12)))
          CFI CFA_SP SP+0
          CFI CFA_XSP16 add(XSP16, 12)
        ; Saved register size: 12
        ; Auto size: 0
        MOV     A,R1
        MOV     R6,A
        MOV     A,R2
        MOV     R7,A
//  194   // Shift is used to make each button/switch dual purpose.
//  195   if ( shift )
        MOV     A,R6
        JNZ     ??zb_HandleKeys_0
//  196   {
//  197     if ( keys & HAL_KEY_SW_1 )
//  198     {
//  199     }
//  200     if ( keys & HAL_KEY_SW_2 )
//  201     {
//  202     }
//  203     if ( keys & HAL_KEY_SW_3 )
//  204     {
//  205     }
//  206     if ( keys & HAL_KEY_SW_4 )
//  207     {
//  208     }
//  209   }
//  210   else
//  211   {
//  212     if ( keys & HAL_KEY_SW_1 )
        MOV     A,R7
        MOV     C,0xE0 /* A   */.0
        JNC     ??zb_HandleKeys_0
//  213     {
//  214       // Start reporting
//  215       if ( reportState == FALSE ) {
        MOV     DPTR,#reportState
        MOVX    A,@DPTR
        JNZ     ??zb_HandleKeys_0
//  216         osal_start_reload_timer( sapi_TaskID, MY_REPORT_EVT, myReportPeriod );
        ; Setup parameters for call to function osal_start_reload_timer
        MOV     DPTR,#myReportPeriod
        MOVX    A,@DPTR
        MOV     ?V0,A
        INC     DPTR
        MOVX    A,@DPTR
        MOV     ?V1,A
        CLR     A
        MOV     ?V2,A
        MOV     ?V3,A
        MOV     R0,#?V0
        LCALL   ?PUSH_XSTACK_I_FOUR
          CFI CFA_XSP16 add(XSP16, 16)
        MOV     R2,#0x2
        MOV     R3,#0x0
        MOV     DPTR,#sapi_TaskID
        MOVX    A,@DPTR
        MOV     R1,A
        LCALL   `??osal_start_reload_timer::?relay`; Banked call to: osal_start_reload_timer
        MOV     A,#0x4
        LCALL   ?DEALLOC_XSTACK8
          CFI CFA_XSP16 add(XSP16, 12)
        MOV     A,R1
//  217         reportState = TRUE;
        MOV     DPTR,#reportState
        MOV     A,#0x1
        MOVX    @DPTR,A
//  218 
//  219         // switch LED 2 on to indicate reporting
//  220         HalLedSet( HAL_LED_2, HAL_LED_MODE_ON );
        ; Setup parameters for call to function HalLedSet
        MOV     R2,#0x1
        MOV     R1,#0x2
        LCALL   `??HalLedSet::?relay`; Banked call to: HalLedSet
        MOV     A,R1
//  221       }
//  222     }
//  223     if ( keys & HAL_KEY_SW_2 )
//  224     {
//  225     }
//  226     if ( keys & HAL_KEY_SW_3 )
//  227     {
//  228     }
//  229     if ( keys & HAL_KEY_SW_4 )
//  230     {
//  231     }
//  232   }
//  233 }
??zb_HandleKeys_0:
        MOV     R7,#0x4
        LJMP    ?BANKED_LEAVE_XDATA
          CFI R6 SameValue
          CFI VB SameValue
          CFI V0 SameValue
          CFI V1 SameValue
          CFI V2 SameValue
          CFI V3 SameValue
          CFI R7 SameValue
          CFI ?RET_LOW Frame(CFA_SP, 1)
          CFI ?RET_HIGH Frame(CFA_SP, 2)
          CFI ?BRET_EXT Frame(CFA_SP, 3)
          CFI DPL0 SameValue
          CFI DPH0 SameValue
          CFI CFA_SP SP+-3
          CFI CFA_XSP16 XSP16+0
          CFI EndBlock cfiBlock1
//  234 
//  235 /******************************************************************************
//  236  * @fn          zb_StartConfirm
//  237  *
//  238  * @brief       The zb_StartConfirm callback is called by the ZigBee stack
//  239  *              after a start request operation completes
//  240  *
//  241  * @param       status - The status of the start operation.  Status of
//  242  *                       ZB_SUCCESS indicates the start operation completed
//  243  *                       successfully.  Else the status is an error code.
//  244  *
//  245  * @return      none
//  246  */

        RSEG BANKED_CODE:CODE:NOROOT(0)
//  247 void zb_StartConfirm( uint8 status )
zb_StartConfirm:
          CFI Block cfiBlock2 Using cfiCommon0
          CFI Function zb_StartConfirm
        CODE
//  248 {
        FUNCALL zb_StartConfirm, HalLedSet
        LOCFRAME ISTACK, 0, STACK
        LOCFRAME PSTACK, 0, STACK
        LOCFRAME XSTACK, 12, STACK
        LOCFRAME IOVERLAY, 0, STATIC
        LOCFRAME DOVERLAY, 0, STATIC
        ARGFRAME ISTACK, 0, STACK
        ARGFRAME PSTACK, 0, STACK
        ARGFRAME XSTACK, 12, STACK
        ARGFRAME IOVERLAY, 0, STATIC
        ARGFRAME DOVERLAY, 0, STATIC
        FUNCALL zb_StartConfirm, zb_GetDeviceInfo
        LOCFRAME ISTACK, 0, STACK
        LOCFRAME PSTACK, 0, STACK
        LOCFRAME XSTACK, 12, STACK
        LOCFRAME IOVERLAY, 0, STATIC
        LOCFRAME DOVERLAY, 0, STATIC
        ARGFRAME ISTACK, 0, STACK
        ARGFRAME PSTACK, 0, STACK
        ARGFRAME XSTACK, 12, STACK
        ARGFRAME IOVERLAY, 0, STATIC
        ARGFRAME DOVERLAY, 0, STATIC
        FUNCALL zb_StartConfirm, osal_set_event
        LOCFRAME ISTACK, 0, STACK
        LOCFRAME PSTACK, 0, STACK
        LOCFRAME XSTACK, 12, STACK
        LOCFRAME IOVERLAY, 0, STATIC
        LOCFRAME DOVERLAY, 0, STATIC
        ARGFRAME ISTACK, 0, STACK
        ARGFRAME PSTACK, 0, STACK
        ARGFRAME XSTACK, 12, STACK
        ARGFRAME IOVERLAY, 0, STATIC
        ARGFRAME DOVERLAY, 0, STATIC
        FUNCALL zb_StartConfirm, zb_AllowBind
        LOCFRAME ISTACK, 0, STACK
        LOCFRAME PSTACK, 0, STACK
        LOCFRAME XSTACK, 12, STACK
        LOCFRAME IOVERLAY, 0, STATIC
        LOCFRAME DOVERLAY, 0, STATIC
        ARGFRAME ISTACK, 0, STACK
        ARGFRAME PSTACK, 0, STACK
        ARGFRAME XSTACK, 12, STACK
        ARGFRAME IOVERLAY, 0, STATIC
        ARGFRAME DOVERLAY, 0, STATIC
        FUNCALL zb_StartConfirm, HalLedSet
        LOCFRAME ISTACK, 0, STACK
        LOCFRAME PSTACK, 0, STACK
        LOCFRAME XSTACK, 12, STACK
        LOCFRAME IOVERLAY, 0, STATIC
        LOCFRAME DOVERLAY, 0, STATIC
        ARGFRAME ISTACK, 0, STACK
        ARGFRAME PSTACK, 0, STACK
        ARGFRAME XSTACK, 12, STACK
        ARGFRAME IOVERLAY, 0, STATIC
        ARGFRAME DOVERLAY, 0, STATIC
        FUNCALL zb_StartConfirm, osal_start_timerEx
        LOCFRAME ISTACK, 0, STACK
        LOCFRAME PSTACK, 0, STACK
        LOCFRAME XSTACK, 16, STACK
        LOCFRAME IOVERLAY, 0, STATIC
        LOCFRAME DOVERLAY, 0, STATIC
        ARGFRAME ISTACK, 0, STACK
        ARGFRAME PSTACK, 0, STACK
        ARGFRAME XSTACK, 16, STACK
        ARGFRAME IOVERLAY, 0, STATIC
        ARGFRAME DOVERLAY, 0, STATIC
        REQUIRE ?V0
        REQUIRE ?V1
        REQUIRE ?V2
        REQUIRE ?V3
        MOV     A,#-0xc
        LCALL   ?BANKED_ENTER_XDATA
          CFI DPH0 load(1, XDATA, add(CFA_XSP16, literal(-1)))
          CFI DPL0 load(1, XDATA, add(CFA_XSP16, literal(-2)))
          CFI ?BRET_EXT load(1, XDATA, add(CFA_XSP16, literal(-3)))
          CFI ?RET_HIGH load(1, XDATA, add(CFA_XSP16, literal(-4)))
          CFI ?RET_LOW load(1, XDATA, add(CFA_XSP16, literal(-5)))
          CFI R7 load(1, XDATA, add(CFA_XSP16, literal(-6)))
          CFI V3 load(1, XDATA, add(CFA_XSP16, literal(-7)))
          CFI V2 load(1, XDATA, add(CFA_XSP16, literal(-8)))
          CFI V1 load(1, XDATA, add(CFA_XSP16, literal(-9)))
          CFI V0 load(1, XDATA, add(CFA_XSP16, literal(-10)))
          CFI VB load(1, XDATA, add(CFA_XSP16, literal(-11)))
          CFI R6 load(1, XDATA, add(CFA_XSP16, literal(-12)))
          CFI CFA_SP SP+0
          CFI CFA_XSP16 add(XSP16, 12)
        ; Saved register size: 12
        ; Auto size: 0
        MOV     A,R1
        MOV     R6,A
//  249   // If the device sucessfully started, change state to running
//  250   if ( status == ZB_SUCCESS )
        MOV     A,R6
        JNZ     ??zb_StartConfirm_0
//  251   {
//  252     // Set LED 1 to indicate that node is operational on the network
//  253     HalLedSet( HAL_LED_1, HAL_LED_MODE_ON );
        ; Setup parameters for call to function HalLedSet
        MOV     R2,#0x1
        MOV     R1,#0x1
        LCALL   `??HalLedSet::?relay`; Banked call to: HalLedSet
        MOV     A,R1
//  254 
//  255     // Store parent short address
//  256     zb_GetDeviceInfo(ZB_INFO_PARENT_SHORT_ADDR, &parentShortAddr);
        ; Setup parameters for call to function zb_GetDeviceInfo
        MOV     R2,#parentShortAddr & 0xff
        MOV     R3,#(parentShortAddr >> 8) & 0xff
        MOV     R1,#0x3
        LCALL   `??zb_GetDeviceInfo::?relay`; Banked call to: zb_GetDeviceInfo
//  257 
//  258     // Set event to bind to a collector
//  259     osal_set_event( sapi_TaskID, MY_FIND_COLLECTOR_EVT );
        ; Setup parameters for call to function osal_set_event
        MOV     R2,#0x4
        MOV     R3,#0x0
        MOV     DPTR,#sapi_TaskID
        MOVX    A,@DPTR
        MOV     R1,A
        LCALL   `??osal_set_event::?relay`; Banked call to: osal_set_event
        MOV     A,R1
//  260 
//  261     // Turn OFF Allow Bind mode infinitly
//  262     zb_AllowBind( 0x00 );
        ; Setup parameters for call to function zb_AllowBind
        MOV     R1,#0x0
        LCALL   `??zb_AllowBind::?relay`; Banked call to: zb_AllowBind
//  263     HalLedSet( HAL_LED_2, HAL_LED_MODE_OFF );
        ; Setup parameters for call to function HalLedSet
        MOV     R2,#0x0
        MOV     R1,#0x2
        LCALL   `??HalLedSet::?relay`; Banked call to: HalLedSet
        MOV     A,R1
        SJMP    ??zb_StartConfirm_1
//  264   }
//  265   else
//  266   {
//  267     // Try again later with a delay
//  268     osal_start_timerEx( sapi_TaskID, MY_START_EVT, myStartRetryDelay );
??zb_StartConfirm_0:
        ; Setup parameters for call to function osal_start_timerEx
        MOV     DPTR,#myStartRetryDelay
        MOVX    A,@DPTR
        MOV     ?V0,A
        CLR     A
        MOV     ?V1,A
        MOV     ?V2,A
        MOV     ?V3,A
        MOV     R0,#?V0
        LCALL   ?PUSH_XSTACK_I_FOUR
          CFI CFA_XSP16 add(XSP16, 16)
        MOV     R2,#0x1
        MOV     R3,#0x0
        MOV     DPTR,#sapi_TaskID
        MOVX    A,@DPTR
        MOV     R1,A
        LCALL   `??osal_start_timerEx::?relay`; Banked call to: osal_start_timerEx
        MOV     A,#0x4
        LCALL   ?DEALLOC_XSTACK8
          CFI CFA_XSP16 add(XSP16, 12)
        MOV     A,R1
//  269   }
//  270 }
??zb_StartConfirm_1:
        MOV     R7,#0x4
        LJMP    ?BANKED_LEAVE_XDATA
          CFI R6 SameValue
          CFI VB SameValue
          CFI V0 SameValue
          CFI V1 SameValue
          CFI V2 SameValue
          CFI V3 SameValue
          CFI R7 SameValue
          CFI ?RET_LOW Frame(CFA_SP, 1)
          CFI ?RET_HIGH Frame(CFA_SP, 2)
          CFI ?BRET_EXT Frame(CFA_SP, 3)
          CFI DPL0 SameValue
          CFI DPH0 SameValue
          CFI CFA_SP SP+-3
          CFI CFA_XSP16 XSP16+0
          CFI EndBlock cfiBlock2
//  271 
//  272 /******************************************************************************
//  273  * @fn          zb_BindConfirm
//  274  *
//  275  * @brief       The zb_BindConfirm callback is called by the ZigBee stack
//  276  *              after a bind operation completes.
//  277  *
//  278  * @param       commandId - The command ID of the binding being confirmed.
//  279  *              status - The status of the bind operation.
//  280  *
//  281  * @return      none
//  282  */

        RSEG BANKED_CODE:CODE:NOROOT(0)
//  283 void zb_BindConfirm( uint16 commandId, uint8 status )
zb_BindConfirm:
          CFI Block cfiBlock3 Using cfiCommon0
          CFI Function zb_BindConfirm
        CODE
//  284 {
        FUNCALL zb_BindConfirm, HalLedSet
        LOCFRAME ISTACK, 0, STACK
        LOCFRAME PSTACK, 0, STACK
        LOCFRAME XSTACK, 12, STACK
        LOCFRAME IOVERLAY, 0, STATIC
        LOCFRAME DOVERLAY, 0, STATIC
        ARGFRAME ISTACK, 0, STACK
        ARGFRAME PSTACK, 0, STACK
        ARGFRAME XSTACK, 12, STACK
        ARGFRAME IOVERLAY, 0, STATIC
        ARGFRAME DOVERLAY, 0, STATIC
        FUNCALL zb_BindConfirm, osal_start_reload_timer
        LOCFRAME ISTACK, 0, STACK
        LOCFRAME PSTACK, 0, STACK
        LOCFRAME XSTACK, 16, STACK
        LOCFRAME IOVERLAY, 0, STATIC
        LOCFRAME DOVERLAY, 0, STATIC
        ARGFRAME ISTACK, 0, STACK
        ARGFRAME PSTACK, 0, STACK
        ARGFRAME XSTACK, 16, STACK
        ARGFRAME IOVERLAY, 0, STATIC
        ARGFRAME DOVERLAY, 0, STATIC
        FUNCALL zb_BindConfirm, HalLedSet
        LOCFRAME ISTACK, 0, STACK
        LOCFRAME PSTACK, 0, STACK
        LOCFRAME XSTACK, 12, STACK
        LOCFRAME IOVERLAY, 0, STATIC
        LOCFRAME DOVERLAY, 0, STATIC
        ARGFRAME ISTACK, 0, STACK
        ARGFRAME PSTACK, 0, STACK
        ARGFRAME XSTACK, 12, STACK
        ARGFRAME IOVERLAY, 0, STATIC
        ARGFRAME DOVERLAY, 0, STATIC
        FUNCALL zb_BindConfirm, zb_SystemReset
        LOCFRAME ISTACK, 0, STACK
        LOCFRAME PSTACK, 0, STACK
        LOCFRAME XSTACK, 12, STACK
        LOCFRAME IOVERLAY, 0, STATIC
        LOCFRAME DOVERLAY, 0, STATIC
        ARGFRAME ISTACK, 0, STACK
        ARGFRAME PSTACK, 0, STACK
        ARGFRAME XSTACK, 12, STACK
        ARGFRAME IOVERLAY, 0, STATIC
        ARGFRAME DOVERLAY, 0, STATIC
        FUNCALL zb_BindConfirm, osal_start_timerEx
        LOCFRAME ISTACK, 0, STACK
        LOCFRAME PSTACK, 0, STACK
        LOCFRAME XSTACK, 16, STACK
        LOCFRAME IOVERLAY, 0, STATIC
        LOCFRAME DOVERLAY, 0, STATIC
        ARGFRAME ISTACK, 0, STACK
        ARGFRAME PSTACK, 0, STACK
        ARGFRAME XSTACK, 16, STACK
        ARGFRAME IOVERLAY, 0, STATIC
        ARGFRAME DOVERLAY, 0, STATIC
        REQUIRE ?V0
        REQUIRE ?V1
        REQUIRE ?V2
        REQUIRE ?V3
        MOV     A,#-0xc
        LCALL   ?BANKED_ENTER_XDATA
          CFI DPH0 load(1, XDATA, add(CFA_XSP16, literal(-1)))
          CFI DPL0 load(1, XDATA, add(CFA_XSP16, literal(-2)))
          CFI ?BRET_EXT load(1, XDATA, add(CFA_XSP16, literal(-3)))
          CFI ?RET_HIGH load(1, XDATA, add(CFA_XSP16, literal(-4)))
          CFI ?RET_LOW load(1, XDATA, add(CFA_XSP16, literal(-5)))
          CFI R7 load(1, XDATA, add(CFA_XSP16, literal(-6)))
          CFI V3 load(1, XDATA, add(CFA_XSP16, literal(-7)))
          CFI V2 load(1, XDATA, add(CFA_XSP16, literal(-8)))
          CFI V1 load(1, XDATA, add(CFA_XSP16, literal(-9)))
          CFI V0 load(1, XDATA, add(CFA_XSP16, literal(-10)))
          CFI VB load(1, XDATA, add(CFA_XSP16, literal(-11)))
          CFI R6 load(1, XDATA, add(CFA_XSP16, literal(-12)))
          CFI CFA_SP SP+0
          CFI CFA_XSP16 add(XSP16, 12)
        ; Saved register size: 12
        ; Auto size: 0
        MOV     A,R1
        MOV     R6,A
//  285   if( status == ZB_SUCCESS )
        MOV     A,R6
        JNZ     ??zb_BindConfirm_0
//  286   {
//  287     appState = APP_RUN;
        MOV     DPTR,#appState
        MOV     A,#0x4
        MOVX    @DPTR,A
//  288     HalLedSet( HAL_LED_2, HAL_LED_MODE_OFF );
        ; Setup parameters for call to function HalLedSet
        MOV     R2,#0x0
        MOV     R1,#0x2
        LCALL   `??HalLedSet::?relay`; Banked call to: HalLedSet
        MOV     A,R1
//  289 
//  290     // After failure reporting start automatically when the device
//  291     // is bound to a new gateway
//  292     if ( reportState )
        MOV     DPTR,#reportState
        MOVX    A,@DPTR
        JZ      ??zb_BindConfirm_1
//  293     {
//  294       // Start reporting
//  295       osal_start_reload_timer( sapi_TaskID, MY_REPORT_EVT, myReportPeriod );
        ; Setup parameters for call to function osal_start_reload_timer
        MOV     DPTR,#myReportPeriod
        MOVX    A,@DPTR
        MOV     ?V0,A
        INC     DPTR
        MOVX    A,@DPTR
        MOV     ?V1,A
        CLR     A
        MOV     ?V2,A
        MOV     ?V3,A
        MOV     R0,#?V0
        LCALL   ?PUSH_XSTACK_I_FOUR
          CFI CFA_XSP16 add(XSP16, 16)
        MOV     R2,#0x2
        MOV     R3,#0x0
        MOV     DPTR,#sapi_TaskID
        MOVX    A,@DPTR
        MOV     R1,A
        LCALL   `??osal_start_reload_timer::?relay`; Banked call to: osal_start_reload_timer
        MOV     A,#0x4
        LCALL   ?DEALLOC_XSTACK8
          CFI CFA_XSP16 add(XSP16, 12)
        MOV     A,R1
//  296 
//  297       // switch LED 2 on to indicate reporting
//  298       HalLedSet( HAL_LED_2, HAL_LED_MODE_ON );
        ; Setup parameters for call to function HalLedSet
        MOV     R2,#0x1
        MOV     R1,#0x2
        LCALL   `??HalLedSet::?relay`; Banked call to: HalLedSet
        MOV     A,R1
        SJMP    ??zb_BindConfirm_1
//  299     }
//  300   }
//  301   else
//  302   {
//  303     if ( ++bindRetries >= 2 ) {
??zb_BindConfirm_0:
        MOV     DPTR,#bindRetries
        MOVX    A,@DPTR
        ADD     A,#0x1
        MOVX    @DPTR,A
        MOV     DPTR,#bindRetries
        MOVX    A,@DPTR
        CLR     C
        SUBB    A,#0x2
        JC      ??zb_BindConfirm_2
//  304       // Reset the system
//  305       zb_SystemReset();
        ; Setup parameters for call to function zb_SystemReset
        LCALL   `??zb_SystemReset::?relay`; Banked call to: zb_SystemReset
        SJMP    ??zb_BindConfirm_1
//  306     }
//  307     else
//  308     {
//  309       osal_start_timerEx( sapi_TaskID, MY_FIND_COLLECTOR_EVT, myBindRetryDelay );
??zb_BindConfirm_2:
        ; Setup parameters for call to function osal_start_timerEx
        MOV     DPTR,#myBindRetryDelay
        MOVX    A,@DPTR
        MOV     ?V0,A
        INC     DPTR
        MOVX    A,@DPTR
        MOV     ?V1,A
        CLR     A
        MOV     ?V2,A
        MOV     ?V3,A
        MOV     R0,#?V0
        LCALL   ?PUSH_XSTACK_I_FOUR
          CFI CFA_XSP16 add(XSP16, 16)
        MOV     R2,#0x4
        MOV     R3,#0x0
        MOV     DPTR,#sapi_TaskID
        MOVX    A,@DPTR
        MOV     R1,A
        LCALL   `??osal_start_timerEx::?relay`; Banked call to: osal_start_timerEx
        MOV     A,#0x4
        LCALL   ?DEALLOC_XSTACK8
          CFI CFA_XSP16 add(XSP16, 12)
        MOV     A,R1
//  310     }
//  311   }
//  312 }
??zb_BindConfirm_1:
        MOV     R7,#0x4
        LJMP    ?BANKED_LEAVE_XDATA
          CFI R6 SameValue
          CFI VB SameValue
          CFI V0 SameValue
          CFI V1 SameValue
          CFI V2 SameValue
          CFI V3 SameValue
          CFI R7 SameValue
          CFI ?RET_LOW Frame(CFA_SP, 1)
          CFI ?RET_HIGH Frame(CFA_SP, 2)
          CFI ?BRET_EXT Frame(CFA_SP, 3)
          CFI DPL0 SameValue
          CFI DPH0 SameValue
          CFI CFA_SP SP+-3
          CFI CFA_XSP16 XSP16+0
          CFI EndBlock cfiBlock3
//  313 
//  314 /******************************************************************************
//  315  * @fn          zb_SendDataConfirm
//  316  *
//  317  * @brief       The zb_SendDataConfirm callback function is called by the
//  318  *              ZigBee after a send data operation completes
//  319  *
//  320  * @param       handle - The handle identifying the data transmission.
//  321  *              status - The status of the operation.
//  322  *
//  323  * @return      none
//  324  */

        RSEG BANKED_CODE:CODE:NOROOT(0)
//  325 void zb_SendDataConfirm( uint8 handle, uint8 status )
zb_SendDataConfirm:
          CFI Block cfiBlock4 Using cfiCommon0
          CFI Function zb_SendDataConfirm
        CODE
//  326 {
        FUNCALL zb_SendDataConfirm, osal_stop_timerEx
        LOCFRAME ISTACK, 0, STACK
        LOCFRAME PSTACK, 0, STACK
        LOCFRAME XSTACK, 12, STACK
        LOCFRAME IOVERLAY, 0, STATIC
        LOCFRAME DOVERLAY, 0, STATIC
        ARGFRAME ISTACK, 0, STACK
        ARGFRAME PSTACK, 0, STACK
        ARGFRAME XSTACK, 12, STACK
        ARGFRAME IOVERLAY, 0, STATIC
        ARGFRAME DOVERLAY, 0, STATIC
        FUNCALL zb_SendDataConfirm, zb_BindDevice
        LOCFRAME ISTACK, 0, STACK
        LOCFRAME PSTACK, 0, STACK
        LOCFRAME XSTACK, 12, STACK
        LOCFRAME IOVERLAY, 0, STATIC
        LOCFRAME DOVERLAY, 0, STATIC
        ARGFRAME ISTACK, 0, STACK
        ARGFRAME PSTACK, 0, STACK
        ARGFRAME XSTACK, 12, STACK
        ARGFRAME IOVERLAY, 0, STATIC
        ARGFRAME DOVERLAY, 0, STATIC
        FUNCALL zb_SendDataConfirm, osal_start_timerEx
        LOCFRAME ISTACK, 0, STACK
        LOCFRAME PSTACK, 0, STACK
        LOCFRAME XSTACK, 16, STACK
        LOCFRAME IOVERLAY, 0, STATIC
        LOCFRAME DOVERLAY, 0, STATIC
        ARGFRAME ISTACK, 0, STACK
        ARGFRAME PSTACK, 0, STACK
        ARGFRAME XSTACK, 16, STACK
        ARGFRAME IOVERLAY, 0, STATIC
        ARGFRAME DOVERLAY, 0, STATIC
        REQUIRE ?V0
        REQUIRE ?V1
        REQUIRE ?V2
        REQUIRE ?V3
        MOV     A,#-0xc
        LCALL   ?BANKED_ENTER_XDATA
          CFI DPH0 load(1, XDATA, add(CFA_XSP16, literal(-1)))
          CFI DPL0 load(1, XDATA, add(CFA_XSP16, literal(-2)))
          CFI ?BRET_EXT load(1, XDATA, add(CFA_XSP16, literal(-3)))
          CFI ?RET_HIGH load(1, XDATA, add(CFA_XSP16, literal(-4)))
          CFI ?RET_LOW load(1, XDATA, add(CFA_XSP16, literal(-5)))
          CFI R7 load(1, XDATA, add(CFA_XSP16, literal(-6)))
          CFI V3 load(1, XDATA, add(CFA_XSP16, literal(-7)))
          CFI V2 load(1, XDATA, add(CFA_XSP16, literal(-8)))
          CFI V1 load(1, XDATA, add(CFA_XSP16, literal(-9)))
          CFI V0 load(1, XDATA, add(CFA_XSP16, literal(-10)))
          CFI VB load(1, XDATA, add(CFA_XSP16, literal(-11)))
          CFI R6 load(1, XDATA, add(CFA_XSP16, literal(-12)))
          CFI CFA_SP SP+0
          CFI CFA_XSP16 add(XSP16, 12)
        ; Saved register size: 12
        ; Auto size: 0
        MOV     A,R2
        MOV     R6,A
//  327   if( status != ZB_SUCCESS )
        MOV     A,R6
        JZ      ??zb_SendDataConfirm_0
//  328   {
//  329     if ( ++reportFailureNr >= REPORT_FAILURE_LIMIT )
        MOV     DPTR,#reportFailureNr
        MOVX    A,@DPTR
        ADD     A,#0x1
        MOVX    @DPTR,A
        MOV     DPTR,#reportFailureNr
        MOVX    A,@DPTR
        CLR     C
        SUBB    A,#0x3
        JC      ??zb_SendDataConfirm_1
//  330     {
//  331        // Stop reporting
//  332        osal_stop_timerEx( sapi_TaskID, MY_REPORT_EVT );
        ; Setup parameters for call to function osal_stop_timerEx
        MOV     R2,#0x2
        MOV     R3,#0x0
        MOV     DPTR,#sapi_TaskID
        MOVX    A,@DPTR
        MOV     R1,A
        LCALL   `??osal_stop_timerEx::?relay`; Banked call to: osal_stop_timerEx
        MOV     A,R1
//  333 
//  334        // After failure start reporting automatically when the device
//  335        // is binded to a new gateway
//  336        reportState = TRUE;
        MOV     DPTR,#reportState
        MOV     A,#0x1
        MOVX    @DPTR,A
//  337 
//  338        // Delete previous binding
//  339        zb_BindDevice( FALSE, SENSOR_REPORT_CMD_ID, (uint8 *)NULL );
        ; Setup parameters for call to function zb_BindDevice
        MOV     R4,#0x0
        MOV     R5,#0x0
        MOV     R2,#0x2
        MOV     R3,#0x0
        MOV     R1,#0x0
        LCALL   `??zb_BindDevice::?relay`; Banked call to: zb_BindDevice
//  340 
//  341       // Try to bind a new gateway
//  342        osal_start_timerEx( sapi_TaskID, MY_FIND_COLLECTOR_EVT, myBindRetryDelay );
        ; Setup parameters for call to function osal_start_timerEx
        MOV     DPTR,#myBindRetryDelay
        MOVX    A,@DPTR
        MOV     ?V0,A
        INC     DPTR
        MOVX    A,@DPTR
        MOV     ?V1,A
        CLR     A
        MOV     ?V2,A
        MOV     ?V3,A
        MOV     R0,#?V0
        LCALL   ?PUSH_XSTACK_I_FOUR
          CFI CFA_XSP16 add(XSP16, 16)
        MOV     R2,#0x4
        MOV     R3,#0x0
        MOV     DPTR,#sapi_TaskID
        MOVX    A,@DPTR
        MOV     R1,A
        LCALL   `??osal_start_timerEx::?relay`; Banked call to: osal_start_timerEx
        MOV     A,#0x4
        LCALL   ?DEALLOC_XSTACK8
          CFI CFA_XSP16 add(XSP16, 12)
        MOV     A,R1
//  343        reportFailureNr = 0;
        MOV     DPTR,#reportFailureNr
        MOV     A,#0x0
        MOVX    @DPTR,A
        SJMP    ??zb_SendDataConfirm_1
//  344     }
//  345   }
//  346   // status == SUCCESS
//  347   else
//  348   {
//  349     // Reset failure counter
//  350     reportFailureNr = 0;
??zb_SendDataConfirm_0:
        MOV     DPTR,#reportFailureNr
        MOV     A,#0x0
        MOVX    @DPTR,A
//  351   }
//  352 }
??zb_SendDataConfirm_1:
        MOV     R7,#0x4
        LJMP    ?BANKED_LEAVE_XDATA
          CFI R6 SameValue
          CFI VB SameValue
          CFI V0 SameValue
          CFI V1 SameValue
          CFI V2 SameValue
          CFI V3 SameValue
          CFI R7 SameValue
          CFI ?RET_LOW Frame(CFA_SP, 1)
          CFI ?RET_HIGH Frame(CFA_SP, 2)
          CFI ?BRET_EXT Frame(CFA_SP, 3)
          CFI DPL0 SameValue
          CFI DPH0 SameValue
          CFI CFA_SP SP+-3
          CFI CFA_XSP16 XSP16+0
          CFI EndBlock cfiBlock4
//  353 
//  354 /******************************************************************************
//  355  * @fn          zb_AllowBindConfirm
//  356  *
//  357  * @brief       Indicates when another device attempted to bind to this device
//  358  *
//  359  * @param
//  360  *
//  361  * @return      none
//  362  */

        RSEG BANKED_CODE:CODE:NOROOT(0)
//  363 void zb_AllowBindConfirm( uint16 source )
zb_AllowBindConfirm:
          CFI Block cfiBlock5 Using cfiCommon0
          CFI Function zb_AllowBindConfirm
        CODE
//  364 {
        ; Saved register size: 0
        ; Auto size: 0
//  365   (void)source;
//  366 }
        LJMP    ?BRET
          CFI EndBlock cfiBlock5
//  367 
//  368 /******************************************************************************
//  369  * @fn          zb_FindDeviceConfirm
//  370  *
//  371  * @brief       The zb_FindDeviceConfirm callback function is called by the
//  372  *              ZigBee stack when a find device operation completes.
//  373  *
//  374  * @param       searchType - The type of search that was performed.
//  375  *              searchKey - Value that the search was executed on.
//  376  *              result - The result of the search.
//  377  *
//  378  * @return      none
//  379  */

        RSEG BANKED_CODE:CODE:NOROOT(0)
//  380 void zb_FindDeviceConfirm( uint8 searchType, uint8 *searchKey, uint8 *result )
zb_FindDeviceConfirm:
          CFI Block cfiBlock6 Using cfiCommon0
          CFI Function zb_FindDeviceConfirm
        CODE
//  381 {
        ; Saved register size: 0
        ; Auto size: 0
//  382   (void)searchType;
//  383   (void)searchKey;
//  384   (void)result;
//  385 }
        LJMP    ?BRET
          CFI EndBlock cfiBlock6
//  386 
//  387 /******************************************************************************
//  388  * @fn          zb_ReceiveDataIndication
//  389  *
//  390  * @brief       The zb_ReceiveDataIndication callback function is called
//  391  *              asynchronously by the ZigBee stack to notify the application
//  392  *              when data is received from a peer device.
//  393  *
//  394  * @param       source - The short address of the peer device that sent the data
//  395  *              command - The commandId associated with the data
//  396  *              len - The number of bytes in the pData parameter
//  397  *              pData - The data sent by the peer device
//  398  *
//  399  * @return      none
//  400  */

        RSEG BANKED_CODE:CODE:NOROOT(0)
//  401 void zb_ReceiveDataIndication( uint16 source, uint16 command, uint16 len, uint8 *pData  )
zb_ReceiveDataIndication:
          CFI Block cfiBlock7 Using cfiCommon0
          CFI Function zb_ReceiveDataIndication
        CODE
//  402 {
        ; Saved register size: 0
        ; Auto size: 0
//  403   (void)source;
//  404   (void)command;
//  405   (void)len;
//  406   (void)pData;
//  407 }
        LJMP    ?BRET
          CFI EndBlock cfiBlock7
//  408 
//  409 /******************************************************************************
//  410  * @fn          uartRxCB
//  411  *
//  412  * @brief       Callback function for UART
//  413  *
//  414  * @param       port - UART port
//  415  *              event - UART event that caused callback
//  416  *
//  417  * @return      none
//  418  */

        RSEG BANKED_CODE:CODE:NOROOT(0)
//  419 void uartRxCB( uint8 port, uint8 event )
uartRxCB:
          CFI Block cfiBlock8 Using cfiCommon0
          CFI Function uartRxCB
        CODE
//  420 {
        ; Saved register size: 0
        ; Auto size: 0
//  421   (void)port;
//  422   (void)event;
//  423 }
        LJMP    ?BRET
          CFI EndBlock cfiBlock8
//  424 
//  425 /******************************************************************************
//  426  * @fn          sendReport
//  427  *
//  428  * @brief       Send sensor report
//  429  *
//  430  * @param       none
//  431  *
//  432  * @return      none
//  433  */

        RSEG BANKED_CODE:CODE:NOROOT(0)
//  434 static void sendReport(void)
sendReport:
          CFI Block cfiBlock9 Using cfiCommon0
          CFI Function sendReport
        CODE
//  435 {
        FUNCALL sendReport, readTemp
        LOCFRAME ISTACK, 0, STACK
        LOCFRAME PSTACK, 0, STACK
        LOCFRAME XSTACK, 14, STACK
        LOCFRAME IOVERLAY, 0, STATIC
        LOCFRAME DOVERLAY, 0, STATIC
        ARGFRAME ISTACK, 0, STACK
        ARGFRAME PSTACK, 0, STACK
        ARGFRAME XSTACK, 14, STACK
        ARGFRAME IOVERLAY, 0, STATIC
        ARGFRAME DOVERLAY, 0, STATIC
        FUNCALL sendReport, readVoltage
        LOCFRAME ISTACK, 0, STACK
        LOCFRAME PSTACK, 0, STACK
        LOCFRAME XSTACK, 14, STACK
        LOCFRAME IOVERLAY, 0, STATIC
        LOCFRAME DOVERLAY, 0, STATIC
        ARGFRAME ISTACK, 0, STACK
        ARGFRAME PSTACK, 0, STACK
        ARGFRAME XSTACK, 14, STACK
        ARGFRAME IOVERLAY, 0, STATIC
        ARGFRAME DOVERLAY, 0, STATIC
        FUNCALL sendReport, zb_SendDataRequest
        LOCFRAME ISTACK, 0, STACK
        LOCFRAME PSTACK, 0, STACK
        LOCFRAME XSTACK, 19, STACK
        LOCFRAME IOVERLAY, 0, STATIC
        LOCFRAME DOVERLAY, 0, STATIC
        ARGFRAME ISTACK, 0, STACK
        ARGFRAME PSTACK, 0, STACK
        ARGFRAME XSTACK, 19, STACK
        ARGFRAME IOVERLAY, 0, STATIC
        ARGFRAME DOVERLAY, 0, STATIC
        REQUIRE ?V0
        REQUIRE ?V1
        MOV     A,#-0xa
        LCALL   ?BANKED_ENTER_XDATA
          CFI DPH0 load(1, XDATA, add(CFA_XSP16, literal(-1)))
          CFI DPL0 load(1, XDATA, add(CFA_XSP16, literal(-2)))
          CFI ?BRET_EXT load(1, XDATA, add(CFA_XSP16, literal(-3)))
          CFI ?RET_HIGH load(1, XDATA, add(CFA_XSP16, literal(-4)))
          CFI ?RET_LOW load(1, XDATA, add(CFA_XSP16, literal(-5)))
          CFI R7 load(1, XDATA, add(CFA_XSP16, literal(-6)))
          CFI V1 load(1, XDATA, add(CFA_XSP16, literal(-7)))
          CFI V0 load(1, XDATA, add(CFA_XSP16, literal(-8)))
          CFI VB load(1, XDATA, add(CFA_XSP16, literal(-9)))
          CFI R6 load(1, XDATA, add(CFA_XSP16, literal(-10)))
          CFI CFA_SP SP+0
          CFI CFA_XSP16 add(XSP16, 10)
        ; Saved register size: 10
        ; Auto size: 4
        MOV     A,#-0x4
        LCALL   ?ALLOC_XSTACK8
          CFI CFA_XSP16 add(XSP16, 14)
//  436   uint8 pData[SENSOR_REPORT_LENGTH];
//  437   static uint8 reportNr = 0;
//  438   uint8 txOptions;
//  439 
//  440   // Read and report temperature value
//  441   pData[SENSOR_TEMP_OFFSET] = readTemp();
        ; Setup parameters for call to function readTemp
        LCALL   `??readTemp::?relay` ; Banked call to: readTemp
        MOV     A,R1
        PUSH    A
          CFI CFA_SP SP+-1
        MOV     DPL,?XSP + 0
        MOV     DPH,?XSP + 1
        POP     A
          CFI CFA_SP SP+0
        MOVX    @DPTR,A
//  442 
//  443   // Read and report voltage value
//  444   pData[SENSOR_VOLTAGE_OFFSET] = readVoltage();
        ; Setup parameters for call to function readVoltage
        LCALL   `??readVoltage::?relay`; Banked call to: readVoltage
        MOV     A,R1
        PUSH    A
          CFI CFA_SP SP+-1
        MOV     A,#0x1
        LCALL   ?XSTACK_DISP0_8
        POP     A
          CFI CFA_SP SP+0
        MOVX    @DPTR,A
//  445 
//  446   pData[SENSOR_PARENT_OFFSET] = HI_UINT16(parentShortAddr);
        MOV     DPTR,#parentShortAddr
        MOVX    A,@DPTR
        MOV     R0,A
        INC     DPTR
        MOVX    A,@DPTR
        MOV     R1,A
        CLR     A
        XCH     A,R1
        MOV     R0,A
        MOV     A,R0
        PUSH    A
          CFI CFA_SP SP+-1
        MOV     A,#0x2
        LCALL   ?XSTACK_DISP0_8
        POP     A
          CFI CFA_SP SP+0
        MOVX    @DPTR,A
//  447   pData[SENSOR_PARENT_OFFSET + 1] = LO_UINT16(parentShortAddr);
        MOV     DPTR,#parentShortAddr
        MOVX    A,@DPTR
        MOV     R0,A
        INC     DPTR
        MOVX    A,@DPTR
        MOV     R1,A
        MOV     A,R0
        PUSH    A
          CFI CFA_SP SP+-1
        MOV     A,#0x3
        LCALL   ?XSTACK_DISP0_8
        POP     A
          CFI CFA_SP SP+0
        MOVX    @DPTR,A
//  448 
//  449   // Set ACK request on each ACK_INTERVAL report
//  450   // If a report failed, set ACK request on next report
//  451   if ( ++reportNr < ACK_REQ_INTERVAL && reportFailureNr == 0 )
        MOV     DPTR,#??reportNr
        MOVX    A,@DPTR
        ADD     A,#0x1
        MOVX    @DPTR,A
        MOV     DPTR,#??reportNr
        MOVX    A,@DPTR
        CLR     C
        SUBB    A,#0x5
        JNC     ??sendReport_0
        MOV     DPTR,#reportFailureNr
        MOVX    A,@DPTR
        JNZ     ??sendReport_0
//  452   {
//  453     txOptions = AF_TX_OPTIONS_NONE;
        MOV     R1,#0x0
        SJMP    ??sendReport_1
//  454   }
//  455   else
//  456   {
//  457     txOptions = AF_MSG_ACK_REQUEST;
??sendReport_0:
        MOV     R1,#0x10
//  458     reportNr = 0;
        MOV     DPTR,#??reportNr
        MOV     A,#0x0
        MOVX    @DPTR,A
//  459   }
//  460   // Destination address is set to previously established binding
//  461   // for the commandId.
//  462   zb_SendDataRequest( ZB_BINDING_ADDR, SENSOR_REPORT_CMD_ID, SENSOR_REPORT_LENGTH, pData, 0, txOptions, 0 );
??sendReport_1:
        ; Setup parameters for call to function zb_SendDataRequest
        MOV     ?V0,#0x0
        MOV     R0,#?V0
        LCALL   ?PUSH_XSTACK_I_ONE
          CFI CFA_XSP16 add(XSP16, 15)
        MOV     A,R1
        MOV     ?V0,A
        MOV     R0,#?V0
        LCALL   ?PUSH_XSTACK_I_ONE
          CFI CFA_XSP16 add(XSP16, 16)
        MOV     ?V0,#0x0
        MOV     R0,#?V0
        LCALL   ?PUSH_XSTACK_I_ONE
          CFI CFA_XSP16 add(XSP16, 17)
        MOV     A,#0x3
        LCALL   ?XSTACK_DISP100_8
        MOV     ?V0,R0
        MOV     ?V1,R1
        MOV     R0,#?V0
        LCALL   ?PUSH_XSTACK_I_TWO
          CFI CFA_XSP16 add(XSP16, 19)
        MOV     R1,#0x4
        MOV     R4,#0x2
        MOV     R5,#0x0
        MOV     R2,#-0x2
        MOV     R3,#-0x1
        LCALL   `??zb_SendDataRequest::?relay`; Banked call to: zb_SendDataRequest
        MOV     A,#0x5
        LCALL   ?DEALLOC_XSTACK8
          CFI CFA_XSP16 add(XSP16, 14)
//  463 }
        MOV     A,#0x4
        LCALL   ?DEALLOC_XSTACK8
          CFI CFA_XSP16 add(XSP16, 10)
        MOV     R7,#0x2
        LJMP    ?BANKED_LEAVE_XDATA
          CFI R6 SameValue
          CFI VB SameValue
          CFI V0 SameValue
          CFI V1 SameValue
          CFI R7 SameValue
          CFI ?RET_LOW Frame(CFA_SP, 1)
          CFI ?RET_HIGH Frame(CFA_SP, 2)
          CFI ?BRET_EXT Frame(CFA_SP, 3)
          CFI DPL0 SameValue
          CFI DPH0 SameValue
          CFI CFA_SP SP+-3
          CFI CFA_XSP16 XSP16+0
          CFI EndBlock cfiBlock9

        RSEG XDATA_Z:XDATA:NOROOT(0)
        DATA8
??reportNr:
        DS 1
        REQUIRE __INIT_XDATA_Z
//  464 
//  465 /******************************************************************************
//  466  * @fn          readTemp
//  467  *
//  468  * @brief       read temperature from ADC
//  469  *
//  470  * @param       none
//  471  *
//  472  * @return      temperature
//  473  */

        RSEG BANKED_CODE:CODE:NOROOT(0)
//  474 static int8 readTemp(void)
readTemp:
          CFI Block cfiBlock10 Using cfiCommon0
          CFI Function readTemp
        CODE
//  475 {
        FUNCALL readTemp, HalReadTemp
        LOCFRAME ISTACK, 0, STACK
        LOCFRAME PSTACK, 0, STACK
        LOCFRAME XSTACK, 10, STACK
        LOCFRAME IOVERLAY, 0, STATIC
        LOCFRAME DOVERLAY, 0, STATIC
        ARGFRAME ISTACK, 0, STACK
        ARGFRAME PSTACK, 0, STACK
        ARGFRAME XSTACK, 10, STACK
        ARGFRAME IOVERLAY, 0, STATIC
        ARGFRAME DOVERLAY, 0, STATIC
        REQUIRE ?V0
        REQUIRE ?V1
        MOV     A,#-0xa
        LCALL   ?BANKED_ENTER_XDATA
          CFI DPH0 load(1, XDATA, add(CFA_XSP16, literal(-1)))
          CFI DPL0 load(1, XDATA, add(CFA_XSP16, literal(-2)))
          CFI ?BRET_EXT load(1, XDATA, add(CFA_XSP16, literal(-3)))
          CFI ?RET_HIGH load(1, XDATA, add(CFA_XSP16, literal(-4)))
          CFI ?RET_LOW load(1, XDATA, add(CFA_XSP16, literal(-5)))
          CFI R7 load(1, XDATA, add(CFA_XSP16, literal(-6)))
          CFI V1 load(1, XDATA, add(CFA_XSP16, literal(-7)))
          CFI V0 load(1, XDATA, add(CFA_XSP16, literal(-8)))
          CFI VB load(1, XDATA, add(CFA_XSP16, literal(-9)))
          CFI R6 load(1, XDATA, add(CFA_XSP16, literal(-10)))
          CFI CFA_SP SP+0
          CFI CFA_XSP16 add(XSP16, 10)
        ; Saved register size: 10
        ; Auto size: 0
//  476   static uint16 voltageAtTemp22;
//  477   static uint8 bCalibrate = TRUE; // Calibrate the first time the temp sensor is read
//  478   uint16 value;
//  479   int8 temp;
//  480 
//  481   #if defined (HAL_MCU_CC2530)
//  482   /*
//  483    * Use the ADC to read the temperature
//  484    */
//  485   value = HalReadTemp();
        ; Setup parameters for call to function HalReadTemp
        LCALL   `??HalReadTemp::?relay`; Banked call to: HalReadTemp
        MOV     ?V0,R2
        MOV     ?V1,R3
        MOV     R0,?V0
        MOV     R1,?V1
//  486 
//  487   // Use the 12 MSB of adcValue
//  488   value >>= 4;
        MOV     ?V0,R0
        MOV     ?V1,R1
        MOV     A,#0x4
        MOV     R0,#?V0
        LCALL   ?US_SHR
        MOV     R0,?V0
        MOV     R1,?V1
//  489 
//  490   /*
//  491    * These parameters are typical values and need to be calibrated
//  492    * See the datasheet for the appropriate chip for more details
//  493    * also, the math below may not be very accurate
//  494    */
//  495   /* Assume ADC = 1480 at 25C and ADC = 4/C */
//  496   #define VOLTAGE_AT_TEMP_25        1480
//  497   #define TEMP_COEFFICIENT          4
//  498 
//  499   // Calibrate for 22C the first time the temp sensor is read.
//  500   // This will assume that the demo is started up in temperature of 22C
//  501   if ( bCalibrate ) {
        MOV     DPTR,#??bCalibrate
        MOVX    A,@DPTR
        JZ      ??readTemp_0
//  502     voltageAtTemp22 = value;
        MOV     DPTR,#??voltageAtTemp22
        MOV     A,R0
        MOVX    @DPTR,A
        INC     DPTR
        MOV     A,R1
        MOVX    @DPTR,A
//  503     bCalibrate = FALSE;
        MOV     DPTR,#??bCalibrate
        MOV     A,#0x0
        MOVX    @DPTR,A
//  504   }
//  505 
//  506   temp = 22 + ( (value - voltageAtTemp22) / TEMP_COEFFICIENT );
??readTemp_0:
        MOV     DPTR,#??voltageAtTemp22
        MOVX    A,@DPTR
        MOV     R2,A
        INC     DPTR
        MOVX    A,@DPTR
        MOV     R3,A
        MOV     A,R0
        CLR     C
        SUBB    A,R2
        MOV     ?V0,A
        MOV     A,R1
        SUBB    A,R3
        MOV     ?V1,A
        MOV     A,#0x2
        MOV     R0,#?V0
        LCALL   ?US_SHR
        MOV     A,?V0
        ADD     A,#0x16
        MOV     R1,A
//  507 
//  508   // Set 0C as minimum temperature, and 100C as max
//  509   if ( temp >= 100 )
        MOV     A,R1
        CLR     C
        SUBB    A,#0x64
        MOV     C,0xD0 /* PSW */.2
        XRL     A,PSW
        RLC     A
        JC      ??readTemp_1
//  510   {
//  511     return 100;
        MOV     R1,#0x64
        SJMP    ??readTemp_2
//  512   }
//  513   else if ( temp <= 0 ) {
??readTemp_1:
        MOV     A,R1
        CLR     C
        SUBB    A,#0x1
        MOV     C,0xD0 /* PSW */.2
        XRL     A,PSW
        RLC     A
        JNC     ??readTemp_2
//  514     return 0;
        MOV     R1,#0x0
//  515   }
//  516   else {
//  517     return temp;
??readTemp_2:
        MOV     R7,#0x2
        LJMP    ?BANKED_LEAVE_XDATA
          CFI R6 SameValue
          CFI VB SameValue
          CFI V0 SameValue
          CFI V1 SameValue
          CFI R7 SameValue
          CFI ?RET_LOW Frame(CFA_SP, 1)
          CFI ?RET_HIGH Frame(CFA_SP, 2)
          CFI ?BRET_EXT Frame(CFA_SP, 3)
          CFI DPL0 SameValue
          CFI DPH0 SameValue
          CFI CFA_SP SP+-3
          CFI CFA_XSP16 XSP16+0
//  518   }
//  519   // Only CC2530 is supported
//  520   #else
//  521   return 0;
//  522   #endif
//  523 }
          CFI EndBlock cfiBlock10

        RSEG XDATA_Z:XDATA:NOROOT(0)
        DATA16
??voltageAtTemp22:
        DS 2
        REQUIRE __INIT_XDATA_Z

        RSEG XDATA_I:XDATA:NOROOT(0)
??bCalibrate:
        DATA8
        DS 1
        REQUIRE `?<Initializer for bCalibrate>`
        REQUIRE __INIT_XDATA_I
//  524 
//  525 /******************************************************************************
//  526  * @fn          readVoltage
//  527  *
//  528  * @brief       read voltage from ADC
//  529  *
//  530  * @param       none
//  531  *
//  532  * @return      voltage
//  533  */

        RSEG BANKED_CODE:CODE:NOROOT(0)
//  534 static uint8 readVoltage(void)
readVoltage:
          CFI Block cfiBlock11 Using cfiCommon0
          CFI Function readVoltage
        CODE
//  535 {
        FUNCALL readVoltage, HalReadTemp
        LOCFRAME ISTACK, 0, STACK
        LOCFRAME PSTACK, 0, STACK
        LOCFRAME XSTACK, 16, STACK
        LOCFRAME IOVERLAY, 0, STATIC
        LOCFRAME DOVERLAY, 0, STATIC
        ARGFRAME ISTACK, 0, STACK
        ARGFRAME PSTACK, 0, STACK
        ARGFRAME XSTACK, 16, STACK
        ARGFRAME IOVERLAY, 0, STATIC
        ARGFRAME DOVERLAY, 0, STATIC
        REQUIRE ?V0
        REQUIRE ?V1
        REQUIRE ?V2
        REQUIRE ?V3
        REQUIRE ?V4
        REQUIRE ?V5
        REQUIRE ?V6
        REQUIRE ?V7
        MOV     A,#-0x10
        LCALL   ?BANKED_ENTER_XDATA
          CFI DPH0 load(1, XDATA, add(CFA_XSP16, literal(-1)))
          CFI DPL0 load(1, XDATA, add(CFA_XSP16, literal(-2)))
          CFI ?BRET_EXT load(1, XDATA, add(CFA_XSP16, literal(-3)))
          CFI ?RET_HIGH load(1, XDATA, add(CFA_XSP16, literal(-4)))
          CFI ?RET_LOW load(1, XDATA, add(CFA_XSP16, literal(-5)))
          CFI R7 load(1, XDATA, add(CFA_XSP16, literal(-6)))
          CFI V7 load(1, XDATA, add(CFA_XSP16, literal(-7)))
          CFI V6 load(1, XDATA, add(CFA_XSP16, literal(-8)))
          CFI V5 load(1, XDATA, add(CFA_XSP16, literal(-9)))
          CFI V4 load(1, XDATA, add(CFA_XSP16, literal(-10)))
          CFI V3 load(1, XDATA, add(CFA_XSP16, literal(-11)))
          CFI V2 load(1, XDATA, add(CFA_XSP16, literal(-12)))
          CFI V1 load(1, XDATA, add(CFA_XSP16, literal(-13)))
          CFI V0 load(1, XDATA, add(CFA_XSP16, literal(-14)))
          CFI VB load(1, XDATA, add(CFA_XSP16, literal(-15)))
          CFI R6 load(1, XDATA, add(CFA_XSP16, literal(-16)))
          CFI CFA_SP SP+0
          CFI CFA_XSP16 add(XSP16, 16)
        ; Saved register size: 16
        ; Auto size: 0
//  536   #if defined (HAL_MCU_CC2530)
//  537   /*
//  538    * Use the ADC to read the bus voltage
//  539    */
//  540   uint16 value = HalReadTemp();
        ; Setup parameters for call to function HalReadTemp
        LCALL   `??HalReadTemp::?relay`; Banked call to: HalReadTemp
        MOV     ?V0,R2
        MOV     ?V1,R3
        MOV     R0,?V0
        MOV     R1,?V1
//  541 
//  542   // value now contains measurement of Vdd/3
//  543   // 0 indicates 0V and 32767 indicates 1.25V
//  544   // voltage = (value*3*1.25)/32767 volts
//  545   // we will multiply by this by 10 to allow units of 0.1 volts
//  546   value = value >> 6;   // divide first by 2^6
        MOV     ?V0,R0
        MOV     ?V1,R1
        MOV     A,#0x6
        MOV     R0,#?V0
        LCALL   ?US_SHR
        MOV     R0,?V0
        MOV     R1,?V1
//  547   value = (uint16)(value * 37.5);
        MOV     ?V0,R0
        MOV     ?V1,R1
        CLR     A
        MOV     ?V2,A
        MOV     ?V3,A
        MOV     R0,#?V0
        LCALL   ?UL_TO_FLT
        MOV     DPTR,#__Constant_42160000
        MOV     R0,#?V4
        LCALL   ?L_MOV_X
        MOV     R0,#?V0
        MOV     R1,#?V4
        LCALL   ?FLT_MUL
        MOV     R0,#?V0
        LCALL   ?FLT_TO_L
        MOV     R0,?V0
        MOV     R1,?V1
//  548   value = value >> 9;   // ...and later by 2^9...to prevent overflow during multiplication
        MOV     ?V0,R0
        MOV     ?V1,R1
        MOV     A,#0x9
        MOV     R0,#?V0
        LCALL   ?US_SHR
        MOV     R0,?V0
        MOV     R1,?V1
//  549 
//  550   return value;
        MOV     A,R0
        MOV     R1,A
        MOV     R7,#0x8
        LJMP    ?BANKED_LEAVE_XDATA
          CFI R6 SameValue
          CFI VB SameValue
          CFI V0 SameValue
          CFI V1 SameValue
          CFI V2 SameValue
          CFI V3 SameValue
          CFI V4 SameValue
          CFI V5 SameValue
          CFI V6 SameValue
          CFI V7 SameValue
          CFI R7 SameValue
          CFI ?RET_LOW Frame(CFA_SP, 1)
          CFI ?RET_HIGH Frame(CFA_SP, 2)
          CFI ?BRET_EXT Frame(CFA_SP, 3)
          CFI DPL0 SameValue
          CFI DPH0 SameValue
          CFI CFA_SP SP+-3
          CFI CFA_XSP16 XSP16+0
//  551   #else
//  552   return 0;
//  553   #endif // CC2530
//  554 }
          CFI EndBlock cfiBlock11

        RSEG XDATA_ID:CODE:NOROOT(0)
`?<Initializer for myReportPeriod>`:
        DATA16
        DW 5000

        RSEG XDATA_ID:CODE:NOROOT(0)
`?<Initializer for myBindRetryDelay>`:
        DATA16
        DW 2000

        RSEG XDATA_ID:CODE:NOROOT(0)
`?<Initializer for myStartRetryDelay>`:
        DATA8
        DB 10

        RSEG XDATA_ID:CODE:NOROOT(0)
`?<Initializer for bCalibrate>`:
        DATA8
        DB 1

        RSEG XDATA_ROM_C:CONST:REORDER:NOROOT(0)
        DATA32
__Constant_42160000:
        DD 42160000H

        RSEG BANK_RELAYS:CODE:REORDER:NOROOT(0)
`??zb_HandleOsalEvent::?relay`:
        CODE
        LCALL   ?BDISPATCH
        DATA24
        DC24    zb_HandleOsalEvent

        RSEG BANK_RELAYS:CODE:REORDER:NOROOT(0)
`??zb_HandleKeys::?relay`:
        CODE
        LCALL   ?BDISPATCH
        DATA24
        DC24    zb_HandleKeys

        RSEG BANK_RELAYS:CODE:REORDER:NOROOT(0)
`??zb_StartConfirm::?relay`:
        CODE
        LCALL   ?BDISPATCH
        DATA24
        DC24    zb_StartConfirm

        RSEG BANK_RELAYS:CODE:REORDER:NOROOT(0)
`??zb_BindConfirm::?relay`:
        CODE
        LCALL   ?BDISPATCH
        DATA24
        DC24    zb_BindConfirm

        RSEG BANK_RELAYS:CODE:REORDER:NOROOT(0)
`??zb_SendDataConfirm::?relay`:
        CODE
        LCALL   ?BDISPATCH
        DATA24
        DC24    zb_SendDataConfirm

        RSEG BANK_RELAYS:CODE:REORDER:NOROOT(0)
`??zb_AllowBindConfirm::?relay`:
        CODE
        LCALL   ?BDISPATCH
        DATA24
        DC24    zb_AllowBindConfirm

        RSEG BANK_RELAYS:CODE:REORDER:NOROOT(0)
`??zb_FindDeviceConfirm::?relay`:
        CODE
        LCALL   ?BDISPATCH
        DATA24
        DC24    zb_FindDeviceConfirm

        RSEG BANK_RELAYS:CODE:REORDER:NOROOT(0)
`??zb_ReceiveDataIndication::?relay`:
        CODE
        LCALL   ?BDISPATCH
        DATA24
        DC24    zb_ReceiveDataIndication

        RSEG BANK_RELAYS:CODE:REORDER:NOROOT(0)
`??uartRxCB::?relay`:
        CODE
        LCALL   ?BDISPATCH
        DATA24
        DC24    uartRxCB

        RSEG BANK_RELAYS:CODE:REORDER:NOROOT(0)
`??sendReport::?relay`:
        CODE
        LCALL   ?BDISPATCH
        DATA24
        DC24    sendReport

        RSEG BANK_RELAYS:CODE:REORDER:NOROOT(0)
`??readTemp::?relay`:
        CODE
        LCALL   ?BDISPATCH
        DATA24
        DC24    readTemp

        RSEG BANK_RELAYS:CODE:REORDER:NOROOT(0)
`??readVoltage::?relay`:
        CODE
        LCALL   ?BDISPATCH
        DATA24
        DC24    readVoltage

        END
// 
// 938 bytes in segment BANKED_CODE
//  72 bytes in segment BANK_RELAYS
//   6 bytes in segment XDATA_I
//   6 bytes in segment XDATA_ID
//  18 bytes in segment XDATA_ROM_C
//   9 bytes in segment XDATA_Z
// 
// 1 016 bytes of CODE  memory
//    14 bytes of CONST memory (+ 4 bytes shared)
//    15 bytes of XDATA memory
//
//Errors: none
//Warnings: none
